(lp0
(icard_class
Card
p1
(dp2
S'topside'
p3
S"Bouteille d'eau"
p4
sS'backside'
p5
S'R'
p6
sS'review'
p7
I01
sS'date'
p8
cdatetime
datetime
p9
(S'\x07\xe3\x05\x07\x0f2\x1e\x0e\x94\xc4'
p10
tp11
Rp12
sS'position'
p13
I3
sS'identifier'
p14
S'card_bouteille_eau'
p15
sS'subject'
p16
S'Waste'
p17
sba(icard_class
Card
p18
(dp19
g3
S'Epluchures de pomme de terre'
p20
sg5
S'C'
p21
sg7
I01
sg8
g9
(S'\x07\xe3\x04\x17\x0f\r\x14\x0b5h'
p22
tp23
Rp24
sg13
I0
sg14
S'card_patate'
p25
sS'edited_attribute'
p26
S'Epluchures de pomme de terre'
p27
sg16
g17
sba(icard_class
Card
p28
(dp29
g3
S'Bouteille de Vin'
p30
sg5
S'V'
p31
sg7
I01
sg8
g24
sg13
I2
sg14
S'card_bouteille_vin'
p32
sg16
g17
sba(icard_class
Card
p33
(dp34
g3
S'Bouchon de bouteille'
p35
sg5
S'B'
p36
sg7
I01
sg8
g9
(S'\x07\xe3\x05\x07\x0f:,\x03;\xa9'
p37
tp38
Rp39
sg13
I2
sg14
S'card_bouchon'
p40
sg16
g17
sba(icard_class
Card
p41
(dp42
g3
S'Epluchures de carottes'
p43
sg5
g21
sg7
I00
sg8
g9
(S'\x07\xe3\x05\x14\x10"5\r\x04t'
p44
tp45
Rp46
sg13
I2
sg14
S'card_epluchure'
p47
sg16
S'Waste'
p48
sba(icard_class
Card
p49
(dp50
g3
S"Rognures d'ongles"
p51
sg5
S'O'
p52
sg7
I00
sg8
g46
sg13
I3
sg14
S'card_rognures'
p53
sg16
g48
sba(icard_class
Card
p54
(dp55
g3
S'Os de poulet'
p56
sg5
g52
sg7
I01
sg8
g24
sg13
I0
sg14
S'card_viande'
p57
sg16
g48
sba(icard_class
Card
p58
(dp59
g3
S'M\xc3\xa9got de cigarette'
p60
sg5
S'M'
p61
sg7
I01
sg8
g9
(S'\x07\xe3\x05\x07\x0f5#\t`\xa4'
p62
tp63
Rp64
sg13
I0
sg14
S'card_megot'
p65
sg16
g48
sba(icard_class
Card
p66
(dp67
g3
S'Paquet de p\xc3\xa2tes vide'
p68
sg5
g6
sg7
I01
sg8
g24
sg13
I1
sg14
S'card_paquet'
p69
sg16
g48
sba(icard_class
Card
p70
(dp71
g3
S'Piles us\xc3\xa9es'
p72
sg5
S'P'
p73
sg7
I01
sg8
g9
(S'\x07\xe3\x05\x07\x0f;2\x05.J'
p74
tp75
Rp76
sg13
I2
sg14
S'card_piles'
p77
sg16
S'Waste'
p78
sba(icard_class
Card
p79
(dp80
g3
S'CDrom ray\xc3\xa9'
p81
sg5
S'E'
p82
sg7
I01
sg8
g24
sg13
I1
sg14
S'card_CD'
p83
sg16
g78
sba(icard_class
Card
p84
(dp85
g3
S'Emballage de gateaux'
p86
sg5
g6
sg7
I01
sg8
g24
sg13
I1
sg14
S'card_paquet_gateau'
p87
sg16
g78
sba(icard_class
Card
p88
(dp89
g3
S'Brouillon utilis\xc3\xa9 recto-verso'
p90
sg5
g6
sg7
I01
sg8
g24
sg13
I0
sg14
S'card_brouillon'
p91
sg16
g78
sba(icard_class
Card
p92
(dp93
g3
S'Carton de colis'
p94
sg5
g21
sg7
I01
sg8
g24
sg13
I0
sg14
S'card_carton'
p95
sg16
g78
sba(icard_class
Card
p96
(dp97
g3
S'Sali\xc3\xa8re vide'
p98
sg5
S'Recyclage'
p99
sg7
I01
sg8
g24
sg13
I1
sg14
S'card_sel'
p100
sg16
g78
sba(icard_class
Card
p101
(dp102
g3
S"Ecorces d'orange"
p103
sg5
S'Ordures m\xc3\xa9nag\xc3\xa8res'
p104
sg7
I01
sg8
g24
sg13
I0
sg14
S'card_orange'
p105
sg16
g78
sba(icard_class
Card
p106
(dp107
g3
S'Ecorces de citron'
p108
sg5
S'Ordures m\xc3\xa9nag\xc3\xa8res'
p109
sg7
I01
sg8
g24
sg13
I0
sg14
S'card_citron'
p110
sg16
g78
sba(icard_class
Card
p111
(dp112
g3
S'Peau de pamplemousse'
p113
sg5
S'Ordures m\xc3\xa9nag\xc3\xa8res'
p114
sg7
I01
sg8
g39
sg13
I0
sg14
S'card_pamplemousse'
p115
sg16
g78
sba(icard_class
Card
p116
(dp117
g3
S'Trognon de pomme'
p118
sg5
S'Compost'
p119
sg7
I01
sg8
g9
(S'\x07\xe3\x05\x07\x11/1\x03\xb8\x85'
p120
tp121
Rp122
sg13
I0
sg14
S'card_pomme'
p123
sg16
g78
sba(icard_class
Card
p124
(dp125
g3
S'Brique de lait'
p126
sg5
S'Recyclage'
p127
sg7
I01
sg8
g64
sg13
I2
sg14
S'card_lait'
p128
sg16
g78
sba(icard_class
Card
p129
(dp130
g3
S"Aluminium d'une tablette de chocolat"
p131
sg5
S'Recyclage'
p132
sg7
I00
sg8
g46
sg13
I0
sg14
S'card_chocolat'
p133
sg16
g78
sba(icard_class
Card
p134
(dp135
g3
S'Assiette cass\xc3\xa9e'
p136
sg5
S'Ordures m\xc3\xa9nag\xc3\xa8res'
p137
sg7
I01
sg8
g9
(S'\x07\xe3\x04\x17\x0f(5\x01r\xbd'
p138
tp139
Rp140
sg13
I0
sg14
S'card_assiette'
p141
sg16
S'Waste'
p142
sba(icard_class
Card
p143
(dp144
g3
S'Conserve de flageolets'
p145
sg5
S'Recyclage'
p146
sg7
I01
sg8
g9
(S'\x07\xe3\x04\x17\x0f)\x1b\x07\xeat'
p147
tp148
Rp149
sg13
I0
sg14
S'card_flageolet'
p150
sg16
g142
sba(icard_class
Card
p151
(dp152
g3
S'Conserve de concentr\xc3\xa9 de tomate'
p153
sg5
S'Recyclage'
p154
sg7
I01
sg8
g9
(S'\x07\xe3\x04\x17\x0f);\x08!0'
p155
tp156
Rp157
sg13
I0
sg14
S'card_tomato_concentre'
p158
sg16
g142
sba(icard_class
Card
p159
(dp160
g3
S'Pot de sauce tomate'
p161
sg5
S'Verre'
p162
sg7
I01
sg8
g122
sg13
I1
sg14
S'card_sauce_tomate'
p163
sg16
g142
sba(icard_class
Card
p164
(dp165
g3
S'Pot de pesto'
p166
sg5
S'Verre'
p167
sg7
I01
sg8
g9
(S'\x07\xe3\x04\x17\x0f*)\r\xbe9'
p168
tp169
Rp170
sg13
I0
sg14
S'card_pesto'
p171
sg16
g142
sba(icard_class
Card
p172
(dp173
g3
S'Feuilles mortes'
p174
sg5
S'Compost'
p175
sg7
I00
sg8
g46
sg13
I0
sg14
S'card_feuilles'
p176
sg16
g142
sba(icard_class
Card
p177
(dp178
g3
S'Bouteille de vinaigre'
p179
sg5
S'Verre'
p180
sg7
I01
sg8
g9
(S'\x07\xe3\x04\x17\x0f+\x18\x07.\x15'
p181
tp182
Rp183
sg13
I0
sg14
S'card_vinaigre'
p184
sg16
g142
sba(icard_class
Card
p185
(dp186
g3
S'Bouteille de Corona'
p187
sg5
S'Verre'
p188
sg7
I00
sg8
g46
sg13
I0
sg14
S'card_biere'
p189
sg16
g142
sba(icard_class
Card
p190
(dp191
g3
S'Sachet de baguette'
p192
sg5
S'Compost'
p193
sg7
I00
sg8
g46
sg13
I0
sg14
S'card_sachet_pain'
p194
sg16
g142
sba(icard_class
Card
p195
(dp196
g3
S"Vieux four de l'anim"
p197
sg5
S'Electronique'
p198
sg7
I00
sg8
g46
sg13
I0
sg14
S'card_four'
p199
sg16
S'Waste'
p200
sba(icard_class
Card
p201
(dp202
g3
S'Neon'
p203
sg5
S'Ampoules'
p204
sg7
I01
sg8
g9
(S'\x07\xe3\x04\x17\x0f6\x04\x07\xe5u'
p205
tp206
Rp207
sg13
I0
sg14
S'card_neon'
p208
sg16
g200
sba(icard_class
Card
p209
(dp210
g3
S'Ampoule'
p211
sg5
S'Ampoules'
p212
sg7
I01
sg8
g39
sg13
I0
sg14
S'card_ampoule'
p213
sg16
g200
sba(icard_class
Card
p214
(dp215
g3
S'Vieux jean'
p216
sg5
S'Relais'
p217
sg7
I01
sg8
g9
(S'\x07\xe3\x04\x17\x10\x06\n\x05\x16\n'
p218
tp219
Rp220
sg13
I0
sg14
S'card_jean'
p221
sg16
S'Waste'
p222
sba(icard_class
Card
p223
(dp224
g3
S'Vieilles chaussures'
p225
sg5
S'Relais'
p226
sg7
I01
sg8
g122
sg13
I1
sg14
S'card_chaussure'
p227
sg16
g222
sba(icard_class
Card
p228
(dp229
g3
S'Vieux bonnet'
p230
sg5
S'Relais'
p231
sg7
I01
sg8
g76
sg13
I0
sg14
S'card_bonnet'
p232
sg16
g222
sba(icard_class
Card
p233
(dp234
g3
S'Chaussettes trou\xc3\xa9es'
p235
sg5
S'Ordures m\xc3\xa9nag\xc3\xa8res'
p236
sg7
I01
sg8
g9
(S'\x07\xe3\x04\x17\x10\x074\x08\x05\x13'
p237
tp238
Rp239
sg13
I0
sg14
S'crad_chaussette'
p240
sg16
g222
sba(icard_class
Card
p241
(dp242
g3
S'Vieux collants fil\xc3\xa9s'
p243
sg5
S'Ordures m\xc3\xa9nag\xc3\xa8res'
p244
sg7
I01
sg8
g9
(S'\x07\xe3\x04\x17\x10\x08\r\x03\x80\xa2'
p245
tp246
Rp247
sg13
I0
sg14
S'card_collant'
p248
sg16
g222
sba(icard_class
Card
p249
(dp250
g3
S'Cotons d\xc3\xa9maquillants'
p251
sg5
S'Ordures m\xc3\xa9nag\xc3\xa8res'
p252
sg7
I01
sg8
g9
(S'\x07\xe3\x04\x17\x10\t\t\x08b\xcb'
p253
tp254
Rp255
sg13
I0
sg14
S'card_coton'
p256
sg16
g222
sba(icard_class
Card
p257
(dp258
g3
S'Bouteille de shampoing'
p259
sg5
S'Recyclage'
p260
sg7
I01
sg8
g12
sg13
I0
sg14
S'card_shampoing'
p261
sg16
g222
sba(icard_class
Card
p262
(dp263
g3
S'Carton de papier toilette ou de sopalin'
p264
sg5
S'Compost'
p265
sg7
I01
sg8
g9
(S'\x07\xe3\x04\x17\x10\n\x1c\x07h\xc8'
p266
tp267
Rp268
sg13
I0
sg14
S'card_pq'
p269
sg16
g222
sba(icard_class
Card
p270
(dp271
g3
S'Mouchoires en papier'
p272
sg5
S'Compost'
p273
sg7
I01
sg8
g64
sg13
I0
sg14
S'card_mouchoire'
p274
sg16
g222
sba(icard_class
Card
p275
(dp276
g3
S'Essuie-tout'
p277
sg5
S'Compost'
p278
sg7
I01
sg8
g9
(S'\x07\xe3\x04\x17\x10\x0b\t\t\xf96'
p279
tp280
Rp281
sg13
I0
sg14
S'card_sopalin'
p282
sg16
g222
sba.