(lp0
(icard_class
Card
p1
(dp2
S'topside'
p3
S"Bouteille d'eau"
p4
sS'backside'
p5
S'R'
p6
sS'review'
p7
I01
sS'date'
p8
cdatetime
datetime
p9
(S'\x07\xe3\x05\x07\x0f2\x1e\x0e\x94\xc4'
p10
tp11
Rp12
sS'position'
p13
I3
sS'identifier'
p14
S'card_bouteille_eau'
p15
sS'subject'
p16
S'Waste'
p17
sba(icard_class
Card
p18
(dp19
g3
S'Epluchures de pomme de terre'
p20
sg5
S'C'
p21
sg7
I01
sg8
g9
(S'\x07\xe3\x04\x17\x0f\r\x14\x0b5h'
p22
tp23
Rp24
sg13
I0
sg14
S'card_patate'
p25
sS'edited_attribute'
p26
S'Epluchures de pomme de terre'
p27
sg16
g17
sba(icard_class
Card
p28
(dp29
g3
S'Bouteille de Vin'
p30
sg5
S'V'
p31
sg7
I01
sg8
g24
sg13
I2
sg14
S'card_bouteille_vin'
p32
sg16
g17
sba(icard_class
Card
p33
(dp34
g3
S'Bouchon de bouteille'
p35
sg5
S'B'
p36
sg7
I01
sg8
g9
(S'\x07\xe3\x05\x07\x0f:,\x03;\xa9'
p37
tp38
Rp39
sg13
I2
sg14
S'card_bouchon'
p40
sg16
g17
sba(icard_class
Card
p41
(dp42
g3
S'Epluchures de carottes'
p43
sg5
g21
sg7
I00
sg8
g9
(S'\x07\xe3\x05\x14\x10"5\r\x04t'
p44
tp45
Rp46
sg13
I2
sg14
S'card_epluchure'
p47
sg16
S'Waste'
p48
sba(icard_class
Card
p49
(dp50
g3
S"Rognures d'ongles"
p51
sg5
S'O'
p52
sg7
I00
sg8
g46
sg13
I3
sg14
S'card_rognures'
p53
sg16
g48
sba(icard_class
Card
p54
(dp55
g3
S'Os de poulet'
p56
sg5
g52
sg7
I01
sg8
g24
sg13
I0
sg14
S'card_os'
p57
sg16
g48
sba(icard_class
Card
p58
(dp59
g3
S'M\xc3\xa9got de cigarette'
p60
sg5
S'M'
p61
sg7
I01
sg8
g9
(S'\x07\xe3\x05\x07\x0f5#\t`\xa4'
p62
tp63
Rp64
sg13
I0
sg14
S'card_megot'
p65
sg16
g48
sba(icard_class
Card
p66
(dp67
g3
S'Paquet de p\xc3\xa2tes vide'
p68
sg5
g6
sg7
I01
sg8
g24
sg13
I1
sg14
S'card_paquet'
p69
sg16
g48
sba(icard_class
Card
p70
(dp71
g3
S'Piles us\xc3\xa9es'
p72
sg5
S'P'
p73
sg7
I01
sg8
g9
(S'\x07\xe3\x05\x07\x0f;2\x05.J'
p74
tp75
Rp76
sg13
I2
sg14
S'card_piles'
p77
sg16
S'Waste'
p78
sba(icard_class
Card
p79
(dp80
g3
S'CDrom ray\xc3\xa9'
p81
sg5
S'E'
p82
sg7
I01
sg8
g24
sg13
I1
sg14
S'card_CD'
p83
sg16
g78
sba(icard_class
Card
p84
(dp85
g3
S'Emballage de gateaux'
p86
sg5
g6
sg7
I01
sg8
g24
sg13
I1
sg14
S'card_paquet_gateau'
p87
sg16
g78
sba(icard_class
Card
p88
(dp89
g3
S'Brouillon utilis\xc3\xa9 recto-verso'
p90
sg5
g6
sg7
I01
sg8
g24
sg13
I0
sg14
S'card_brouillon'
p91
sg16
g78
sba(icard_class
Card
p92
(dp93
g3
S'Carton de colis'
p94
sg5
g21
sg7
I01
sg8
g24
sg13
I0
sg14
S'card_carton'
p95
sg16
g78
sba(icard_class
Card
p96
(dp97
g3
S'Sali\xc3\xa8re Cerebos vide'
p98
sg5
S'R'
p99
sg7
I01
sg8
g24
sg13
I1
sg14
S'card_sel'
p100
sg16
g78
sba(icard_class
Card
p101
(dp102
g3
S"Ecorces d'orange"
p103
sg5
S'O'
p104
sg7
I01
sg8
g24
sg13
I0
sg14
S'card_orange'
p105
sg16
g78
sba(icard_class
Card
p106
(dp107
g3
S'Ecorces de citron'
p108
sg5
g104
sg7
I00
sg8
g9
(S'\x07\xe3\x05\x16\x0c\x1f\t\x04dP'
p109
tp110
Rp111
sg13
I1
sg14
S'card_citron'
p112
sg16
g78
sba(icard_class
Card
p113
(dp114
g3
S'Peau de pamplemousse'
p115
sg5
g104
sg7
I01
sg8
g39
sg13
I0
sg14
S'card_pamplemousse'
p116
sg16
g78
sba(icard_class
Card
p117
(dp118
g3
S'Trognon de pomme'
p119
sg5
S'C'
p120
sg7
I01
sg8
g9
(S'\x07\xe3\x05\x07\x11/1\x03\xb8\x85'
p121
tp122
Rp123
sg13
I0
sg14
S'card_pomme'
p124
sg16
g78
sba(icard_class
Card
p125
(dp126
g3
S'Brique de lait'
p127
sg5
g99
sg7
I01
sg8
g64
sg13
I2
sg14
S'card_lait'
p128
sg16
g78
sba(icard_class
Card
p129
(dp130
g3
S"Aluminium d'une tablette de chocolat"
p131
sg5
g99
sg7
I01
sg8
g46
sg13
I0
sg14
S'card_chocolat'
p132
sg16
g78
sba(icard_class
Card
p133
(dp134
g3
S'Assiette cass\xc3\xa9e'
p135
sg5
g104
sg7
I01
sg8
g9
(S'\x07\xe3\x04\x17\x0f(5\x01r\xbd'
p136
tp137
Rp138
sg13
I0
sg14
S'card_assiette'
p139
sg16
S'Waste'
p140
sba(icard_class
Card
p141
(dp142
g3
S'Conserve de flageolets'
p143
sg5
g99
sg7
I01
sg8
g9
(S'\x07\xe3\x04\x17\x0f)\x1b\x07\xeat'
p144
tp145
Rp146
sg13
I0
sg14
S'card_flageolet'
p147
sg16
g140
sba(icard_class
Card
p148
(dp149
g3
S'Conserve de concentr\xc3\xa9 de tomate'
p150
sg5
g99
sg7
I01
sg8
g9
(S'\x07\xe3\x04\x17\x0f);\x08!0'
p151
tp152
Rp153
sg13
I0
sg14
S'card_tomato_concentre'
p154
sg16
g140
sba(icard_class
Card
p155
(dp156
g3
S'Pot de sauce tomate'
p157
sg5
S'V'
p158
sg7
I01
sg8
g123
sg13
I1
sg14
S'card_sauce_tomate'
p159
sg16
g140
sba(icard_class
Card
p160
(dp161
g3
S'Pot de pesto'
p162
sg5
g158
sg7
I01
sg8
g9
(S'\x07\xe3\x04\x17\x0f*)\r\xbe9'
p163
tp164
Rp165
sg13
I0
sg14
S'card_pesto'
p166
sg16
g140
sba(icard_class
Card
p167
(dp168
g3
S'Feuilles mortes'
p169
sg5
g120
sg7
I00
sg8
g9
(S'\x07\xe3\x05\x16\n#\x06\x07-7'
p170
tp171
Rp172
sg13
I1
sg14
S'card_feuilles'
p173
sg16
g140
sba(icard_class
Card
p174
(dp175
g3
S'Bouteille de vinaigre'
p176
sg5
g158
sg7
I01
sg8
g9
(S'\x07\xe3\x04\x17\x0f+\x18\x07.\x15'
p177
tp178
Rp179
sg13
I0
sg14
S'card_vinaigre'
p180
sg16
g140
sba(icard_class
Card
p181
(dp182
g3
S'Bouteille de Corona'
p183
sg5
g158
sg7
I01
sg8
g46
sg13
I0
sg14
S'card_biere'
p184
sg16
g140
sba(icard_class
Card
p185
(dp186
g3
S'Sachet de baguette'
p187
sg5
g120
sg7
I01
sg8
g46
sg13
I0
sg14
S'card_sachet_pain'
p188
sg16
g140
sba(icard_class
Card
p189
(dp190
g3
S"Vieux four de l'anim"
p191
sg5
S'E'
p192
sg7
I01
sg8
g46
sg13
I0
sg14
S'card_four'
p193
sg16
S'Waste'
p194
sba(icard_class
Card
p195
(dp196
g3
S'Neon'
p197
sg5
S'A'
p198
sg7
I01
sg8
g9
(S'\x07\xe3\x04\x17\x0f6\x04\x07\xe5u'
p199
tp200
Rp201
sg13
I0
sg14
S'card_neon'
p202
sg16
g194
sba(icard_class
Card
p203
(dp204
g3
S'Ampoule'
p205
sg5
g198
sg7
I01
sg8
g39
sg13
I0
sg14
S'card_ampoule'
p206
sg16
g194
sba(icard_class
Card
p207
(dp208
g3
S'Vieux jean'
p209
sg5
S'T'
p210
sg7
I01
sg8
g9
(S'\x07\xe3\x04\x17\x10\x06\n\x05\x16\n'
p211
tp212
Rp213
sg13
I0
sg14
S'card_jean'
p214
sg16
S'Waste'
p215
sba(icard_class
Card
p216
(dp217
g3
S'Vieilles chaussures'
p218
sg5
g210
sg7
I01
sg8
g123
sg13
I1
sg14
S'card_chaussure'
p219
sg16
g215
sba(icard_class
Card
p220
(dp221
g3
S'Vieux bonnet'
p222
sg5
g210
sg7
I01
sg8
g76
sg13
I0
sg14
S'card_bonnet'
p223
sg16
g215
sba(icard_class
Card
p224
(dp225
g3
S'Chaussettes trou\xc3\xa9es'
p226
sg5
S'Ordures m\xc3\xa9nag\xc3\xa8res'
p227
sg7
I01
sg8
g9
(S'\x07\xe3\x04\x17\x10\x074\x08\x05\x13'
p228
tp229
Rp230
sg13
I0
sg14
S'crad_chaussette'
p231
sg16
g215
sba(icard_class
Card
p232
(dp233
g3
S'Vieux collants fil\xc3\xa9s'
p234
sg5
S'O'
p235
sg7
I00
sg8
g111
sg13
I1
sg14
S'card_collant'
p236
sg16
g215
sba(icard_class
Card
p237
(dp238
g3
S'Cotons d\xc3\xa9maquillants'
p239
sg5
g235
sg7
I01
sg8
g9
(S'\x07\xe3\x04\x17\x10\t\t\x08b\xcb'
p240
tp241
Rp242
sg13
I0
sg14
S'card_coton'
p243
sg16
g215
sba(icard_class
Card
p244
(dp245
g3
S'Bouteille de shampoing'
p246
sg5
S'R'
p247
sg7
I01
sg8
g12
sg13
I0
sg14
S'card_shampoing'
p248
sg16
g215
sba(icard_class
Card
p249
(dp250
g3
S'Carton de papier toilette ou de sopalin'
p251
sg5
S'C'
p252
sg7
I01
sg8
g9
(S'\x07\xe3\x04\x17\x10\n\x1c\x07h\xc8'
p253
tp254
Rp255
sg13
I0
sg14
S'card_pq'
p256
sg16
g215
sba(icard_class
Card
p257
(dp258
g3
S'Mouchoires en papier'
p259
sg5
g252
sg7
I01
sg8
g64
sg13
I0
sg14
S'card_mouchoire'
p260
sg16
g215
sba(icard_class
Card
p261
(dp262
g3
S'Essuie-tout'
p263
sg5
g252
sg7
I01
sg8
g9
(S'\x07\xe3\x04\x17\x10\x0b\t\t\xf96'
p264
tp265
Rp266
sg13
I0
sg14
S'card_sopalin'
p267
sg16
g215
sba(icard_class
Card
p268
(dp269
g3
S'Brique de jus de fruit'
p270
sg5
g247
sg7
I01
sg8
g9
(S'\x07\xe3\x05\x14\x11*.\x02\xaf\x87'
p271
tp272
Rp273
sg13
I0
sg14
S'card_brique'
p274
sg16
S'Waste'
p275
sba(icard_class
Card
p276
(dp277
g3
S'Gourde de compote'
p278
sg5
g247
sg7
I01
sg8
g9
(S'\x07\xe3\x05\x14\x11+\n\x0c\xed\x10'
p279
tp280
Rp281
sg13
I0
sg14
S'card_pompote'
p282
sg16
g275
sba(icard_class
Card
p283
(dp284
g3
S'Gourde de Caprisun'
p285
sg5
g247
sg7
I01
sg8
g9
(S'\x07\xe3\x05\x14\x11+\x1e\x01\xb30'
p286
tp287
Rp288
sg13
I0
sg14
S'card_caprisun'
p289
sg16
g275
sba(icard_class
Card
p290
(dp291
g3
S'Vieux telephone'
p292
sg5
S'E'
p293
sg7
I00
sg8
g111
sg13
I0
sg14
S'card_telephone'
p294
sg16
g275
sba(icard_class
Card
p295
(dp296
g3
S'Pot de confiture vide'
p297
sg5
S'V'
p298
sg7
I01
sg8
g9
(S'\x07\xe3\x05\x14\x11,\x16\x06:\x9a'
p299
tp300
Rp301
sg13
I0
sg14
S'card_confiture'
p302
sg16
g275
sba(icard_class
Card
p303
(dp304
g3
S'Pot de miel vide'
p305
sg5
g298
sg7
I01
sg8
g9
(S'\x07\xe3\x05\x14\x11,"\x01T\xfc'
p306
tp307
Rp308
sg13
I0
sg14
S'card_miel'
p309
sg16
g275
sba(icard_class
Card
p310
(dp311
g3
S'Flacon de ketchup/mayo/moutarde vide'
p312
sg5
g247
sg7
I01
sg8
g9
(S'\x07\xe3\x05\x14\x11,9\x06\xaeX'
p313
tp314
Rp315
sg13
I0
sg14
S'card_ketchup'
p316
sg16
g275
sba(icard_class
Card
p317
(dp318
g3
S"Flacon de produit d'entretien vide"
p319
sg5
g247
sg7
I00
sg8
g9
(S'\x07\xe3\x05\x16\n",\x01\x8fm'
p320
tp321
Rp322
sg13
I1
sg14
S'card_entretien'
p323
sg16
g275
sba(icard_class
Card
p324
(dp325
g3
S'Draps us\xc3\xa9s'
p326
sg5
g210
sg7
I01
sg8
g9
(S'\x07\xe3\x05\x14\x11-,\n\xbd\xf1'
p327
tp328
Rp329
sg13
I0
sg14
S'card_drap'
p330
sg16
g275
sba(icard_class
Card
p331
(dp332
g3
S'Tube de dentifrice'
p333
sg5
g247
sg7
I01
sg8
g9
(S'\x07\xe3\x05\x14\x11-9\x08.\x08'
p334
tp335
Rp336
sg13
I0
sg14
S'card_dentifrice'
p337
sg16
g275
sba(icard_class
Card
p338
(dp339
g3
S'Brosse \xc3\xa0 dents us\xc3\xa9e'
p340
sg5
g247
sg7
I01
sg8
g9
(S'\x07\xe3\x05\x14\x11.\x10\x06z\x9d'
p341
tp342
Rp343
sg13
I0
sg14
S'card_brosse_dents'
p344
sg16
g275
sba(icard_class
Card
p345
(dp346
g3
S'Bouquet fan\xc3\xa9'
p347
sg5
g252
sg7
I01
sg8
g9
(S'\x07\xe3\x05\x14\x11.&\x0b\xd8H'
p348
tp349
Rp350
sg13
I0
sg14
S'card_bouquet'
p351
sg16
g275
sba(icard_class
Card
p352
(dp353
g3
S'Nappe trou\xc3\xa9e'
p354
sg5
g210
sg7
I01
sg8
g9
(S'\x07\xe3\x05\x14\x11.3\x04\xc4\xf9'
p355
tp356
Rp357
sg13
I0
sg14
S'card_nappe'
p358
sg16
g275
sba(icard_class
Card
p359
(dp360
g3
S'Vieux T_Shirt '
p361
sg5
g210
sg7
I00
sg8
g9
(S'\x07\xe3\x05\x16\n#\x00\x06\xfb}'
p362
tp363
Rp364
sg13
I0
sg14
S'card_tshirt'
p365
sg16
g275
sba(icard_class
Card
p366
(dp367
g3
S'Vieux pull'
p368
sg5
g210
sg7
I01
sg8
g9
(S'\x07\xe3\x05\x14\x11/\x18\x01\xb5}'
p369
tp370
Rp371
sg13
I0
sg14
S'card_pull'
p372
sg16
g275
sba(icard_class
Card
p373
(dp374
g3
S'Vieilles sandales'
p375
sg5
g210
sg7
I01
sg8
g9
(S'\x07\xe3\x05\x14\x11/(\x08\xcbh'
p376
tp377
Rp378
sg13
I0
sg14
S'card_sandales'
p379
sg16
g275
sba(icard_class
Card
p380
(dp381
g3
S'Vieilles tongs'
p382
sg5
g210
sg7
I01
sg8
g9
(S'\x07\xe3\x05\x14\x11/4\x0f=\xf4'
p383
tp384
Rp385
sg13
I0
sg14
S'card_tongs'
p386
sg16
g275
sba(icard_class
Card
p387
(dp388
g3
S'Croutes de fromage'
p389
sg5
g235
sg7
I00
sg8
g111
sg13
I1
sg14
S'card_fromage'
p390
sg16
g275
sba(icard_class
Card
p391
(dp392
g3
S'Mauvais morceaux de viande'
p393
sg5
g235
sg7
I01
sg8
g9
(S'\x07\xe3\x05\x14\x110(\n\xc0}'
p394
tp395
Rp396
sg13
I0
sg14
S'card_viande'
p397
sg16
g275
sba(icard_class
Card
p398
(dp399
g3
S"Coquilles d'oeufs"
p400
sg5
g252
sg7
I01
sg8
g9
(S'\x07\xe3\x05\x14\x111\n\r\xec\x90'
p401
tp402
Rp403
sg13
I0
sg14
S'card_oeuf'
p404
sg16
g275
sba(icard_class
Card
p405
(dp406
g3
S'Peau de melon ou de pasteque'
p407
sg5
g252
sg7
I01
sg8
g9
(S'\x07\xe3\x05\x14\x111(\x0e\n\x9b'
p408
tp409
Rp410
sg13
I0
sg14
S'card_peau_melon'
p411
sg16
g275
sba(icard_class
Card
p412
(dp413
g3
S'Peau de kiwi'
p414
sg5
g252
sg7
I01
sg8
g9
(S'\x07\xe3\x05\x14\x1117\x02\x93\xe6'
p415
tp416
Rp417
sg13
I0
sg14
S'card_peau_kiwi'
p418
sg16
g275
sba(icard_class
Card
p419
(dp420
g3
S'Couenne de jambon'
p421
sg5
g235
sg7
I01
sg8
g9
(S'\x07\xe3\x05\x14\x112\t\n\xe1"'
p422
tp423
Rp424
sg13
I0
sg14
S'card_couenne'
p425
sg16
g275
sba(icard_class
Card
p426
(dp427
g3
S"Queues d'haricots"
p428
sg5
g252
sg7
I01
sg8
g9
(S'\x07\xe3\x05\x14\x112\x1f\nE|'
p429
tp430
Rp431
sg13
I0
sg14
S'card_queue_legume'
p432
sg16
g275
sba(icard_class
Card
p433
(dp434
g3
S'Eponge us\xc3\xa9e'
p435
sg5
g235
sg7
I01
sg8
g9
(S'\x07\xe3\x05\x14\x112,\x03\x07]'
p436
tp437
Rp438
sg13
I0
sg14
S'card_eponge'
p439
sg16
g275
sba(icard_class
Card
p440
(dp441
g3
S'Serpillere us\xc3\xa9e'
p442
sg5
g235
sg7
I01
sg8
g9
(S'\x07\xe3\x05\x14\x113\x01\x0f\x06\x9a'
p443
tp444
Rp445
sg13
I0
sg14
S'card_serpillere'
p446
sg16
g275
sba(icard_class
Card
p447
(dp448
g3
S'Stylo bic'
p449
sg5
g247
sg7
I01
sg8
g9
(S"\x07\xe3\x05\x14\x113\x1b\x04'\xa8"
p450
tp451
Rp452
sg13
I0
sg14
S'card_stylo'
p453
sg16
g275
sba(icard_class
Card
p454
(dp455
g3
S'Crayon de papier'
p456
sg5
g252
sg7
I01
sg8
g9
(S'\x07\xe3\x05\x14\x113&\x05\xde\xed'
p457
tp458
Rp459
sg13
I0
sg14
S'card_crayon'
p460
sg16
g275
sba(icard_class
Card
p461
(dp462
g3
S'Epluchures de gomme'
p463
sg5
g235
sg7
I01
sg8
g9
(S'\x07\xe3\x05\x14\x114\t\x0b\x01D'
p464
tp465
Rp466
sg13
I0
sg14
S'card_gomme'
p467
sg16
g275
sba(icard_class
Card
p468
(dp469
g3
S'Regle gradu\xc3\xa9e'
p470
sg5
g247
sg7
I01
sg8
g9
(S'\x07\xe3\x05\x14\x114\x17\x0e+\xed'
p471
tp472
Rp473
sg13
I0
sg14
S'card_regle'
p474
sg16
g275
sba(icard_class
Card
p475
(dp476
g3
S'Serviette hygienique'
p477
sg5
g235
sg7
I01
sg8
g9
(S'\x07\xe3\x05\x14\x114)\x0c\x97\xd2'
p478
tp479
Rp480
sg13
I0
sg14
S'card_serviette_hygienique'
p481
sg16
g275
sba(icard_class
Card
p482
(dp483
g3
S'Tampon usag\xc3\xa9'
p484
sg5
g235
sg7
I01
sg8
g9
(S'\x07\xe3\x05\x14\x1148\x02\xcb`'
p485
tp486
Rp487
sg13
I0
sg14
S'card_tampon'
p488
sg16
g275
sba(icard_class
Card
p489
(dp490
g3
S'Fruit pourri'
p491
sg5
g252
sg7
I01
sg8
g9
(S'\x07\xe3\x05\x14\x115\x07\x02s\xa5'
p492
tp493
Rp494
sg13
I0
sg14
S'card_fruit'
p495
sg16
g275
sba(icard_class
Card
p496
(dp497
g3
S'Legume rassi'
p498
sg5
g252
sg7
I01
sg8
g9
(S'\x07\xe3\x05\x14\x115\x12\t\x0c\x81'
p499
tp500
Rp501
sg13
I0
sg14
S'card_legume'
p502
sg16
g275
sba(icard_class
Card
p503
(dp504
g3
S'The et sachet de the'
p505
sg5
g252
sg7
I00
sg8
g111
sg13
I1
sg14
S'card_the'
p506
sg16
g275
sba(icard_class
Card
p507
(dp508
g3
S'Marc de cafe'
p509
sg5
g252
sg7
I01
sg8
g9
(S'\x07\xe3\x05\x14\x115.\x08\x12&'
p510
tp511
Rp512
sg13
I0
sg14
S'card_cafe'
p513
sg16
g275
sba(icard_class
Card
p514
(dp515
g3
S'Paille de boisson'
p516
sg5
g247
sg7
I01
sg8
g9
(S'\x07\xe3\x05\x14\x116\x06\t\xe9<'
p517
tp518
Rp519
sg13
I0
sg14
S'card_paille'
p520
sg16
g275
sba(icard_class
Card
p521
(dp522
g3
S'Gobelet de la cafeteria'
p523
sg5
g247
sg7
I01
sg8
g9
(S'\x07\xe3\x05\x14\x116\x14\r\x92\xce'
p524
tp525
Rp526
sg13
I0
sg14
S'card_gobelet'
p527
sg16
g275
sba(icard_class
Card
p528
(dp529
g3
S'Pot de yaourt en plastique'
p530
sg5
g247
sg7
I01
sg8
g9
(S"\x07\xe3\x05\x14\x116'\x08\n\xe9"
p531
tp532
Rp533
sg13
I0
sg14
S'card_yaourt'
p534
sg16
g275
sba(icard_class
Card
p535
(dp536
g3
S"Boite d'oeufs"
p537
sg5
g252
sg7
I01
sg8
g9
(S'\x07\xe3\x05\x14\x1165\x06T\xe9'
p538
tp539
Rp540
sg13
I0
sg14
S'card_boite_oeuf'
p541
sg16
g275
sba(icard_class
Card
p542
(dp543
g3
S'Restant de cigare'
p544
sg5
S'M'
p545
sg7
I01
sg8
g9
(S'\x07\xe3\x05\x14\x117\x08\x02wR'
p546
tp547
Rp548
sg13
I0
sg14
S'card_cigare'
p549
sg16
g275
sba(icard_class
Card
p550
(dp551
g3
S'Alumette usag\xc3\xa9e'
p552
sg5
g252
sg7
I01
sg8
g9
(S'\x07\xe3\x05\x14\x117\x18\x0bx\xb6'
p553
tp554
Rp555
sg13
I0
sg14
S'card_alumette'
p556
sg16
g275
sba(icard_class
Card
p557
(dp558
g3
S'Couverts en plastique'
p559
sg5
g247
sg7
I01
sg8
g9
(S'\x07\xe3\x05\x14\x117*\rL\xbd'
p560
tp561
Rp562
sg13
I0
sg14
S'card_couverts'
p563
sg16
g275
sba(icard_class
Card
p564
(dp565
g3
S'Assiettes \xc3\xa0 usage unique'
p566
sg5
g247
sg7
I01
sg8
g9
(S'\x07\xe3\x05\x14\x118\x01\x04\xc5['
p567
tp568
Rp569
sg13
I0
sg14
S'card_assiette_carton'
p570
sg16
g275
sba(icard_class
Card
p571
(dp572
g3
S'Pot de creme en plastique'
p573
sg5
g247
sg7
I01
sg8
g9
(S'\x07\xe3\x05\x14\x118\x11\x03j\xf0'
p574
tp575
Rp576
sg13
I0
sg14
S'card_creme'
p577
sg16
g275
sba(icard_class
Card
p578
(dp579
g3
S'Cahier'
p580
sg5
g247
sg7
I01
sg8
g9
(S'\x07\xe3\x05\x14\x118\x1e\n\x9dR'
p581
tp582
Rp583
sg13
I0
sg14
S'card_cahier'
p584
sg16
g275
sba.