(lp0
(icard_class
Card
p1
(dp2
S'topside'
p3
S"Bouteille d'eau"
p4
sS'backside'
p5
S'R'
p6
sS'review'
p7
I00
sS'date'
p8
cdatetime
datetime
p9
(S'\x07\xe3\x05\x07\x0f2\x1e\x0e\x94\xc4'
p10
tp11
Rp12
sS'position'
p13
I3
sS'identifier'
p14
S'card_bouteille_eau'
p15
sS'subject'
p16
S'Waste'
p17
sba(icard_class
Card
p18
(dp19
g3
S'Epluchures de pomme de terre'
p20
sg5
S'C'
p21
sg7
I01
sg8
g9
(S'\x07\xe3\x04\x17\x0f\r\x14\x0b5h'
p22
tp23
Rp24
sg13
I0
sg14
S'card_patate'
p25
sS'edited_attribute'
p26
S'Epluchures de pomme de terre'
p27
sg16
g17
sba(icard_class
Card
p28
(dp29
g3
S'Bouteille de Vin'
p30
sg5
S'V'
p31
sg7
I01
sg8
g24
sg13
I2
sg14
S'card_bouteille_vin'
p32
sg16
g17
sba(icard_class
Card
p33
(dp34
g3
S'Bouchon de bouteille'
p35
sg5
S'B'
p36
sg7
I00
sg8
g9
(S'\x07\xe3\x05\x07\x0f:,\x03;\xa9'
p37
tp38
Rp39
sg13
I2
sg14
S'card_bouchon'
p40
sg16
g17
sba(icard_class
Card
p41
(dp42
g3
S'Epluchures de carottes'
p43
sg5
g21
sg7
I01
sg8
g24
sg13
I1
sg14
S'card_epluchure'
p44
sg16
S'Waste'
p45
sba(icard_class
Card
p46
(dp47
g3
S"Rognures d'ongles"
p48
sg5
S'O'
p49
sg7
I01
sg8
g24
sg13
I2
sg14
S'card_rognures'
p50
sg16
g45
sba(icard_class
Card
p51
(dp52
g3
S'Os de poulet'
p53
sg5
g49
sg7
I01
sg8
g24
sg13
I0
sg14
S'card_viande'
p54
sg16
g45
sba(icard_class
Card
p55
(dp56
g3
S'M\xc3\xa9got de cigarette'
p57
sg5
S'M'
p58
sg7
I00
sg8
g9
(S'\x07\xe3\x05\x07\x0f5#\t`\xa4'
p59
tp60
Rp61
sg13
I0
sg14
S'card_megot'
p62
sg16
g45
sba(icard_class
Card
p63
(dp64
g3
S'Paquet de p\xc3\xa2tes vide'
p65
sg5
g6
sg7
I01
sg8
g24
sg13
I1
sg14
S'card_paquet'
p66
sg16
g45
sba(icard_class
Card
p67
(dp68
g3
S'Piles us\xc3\xa9es'
p69
sg5
S'P'
p70
sg7
I00
sg8
g9
(S'\x07\xe3\x05\x07\x0f;2\x05.J'
p71
tp72
Rp73
sg13
I2
sg14
S'card_piles'
p74
sg16
S'Waste'
p75
sba(icard_class
Card
p76
(dp77
g3
S'CDrom ray\xc3\xa9'
p78
sg5
S'E'
p79
sg7
I01
sg8
g24
sg13
I1
sg14
S'card_CD'
p80
sg16
g75
sba(icard_class
Card
p81
(dp82
g3
S'Emballage de gateaux'
p83
sg5
g6
sg7
I01
sg8
g24
sg13
I1
sg14
S'card_paquet_gateau'
p84
sg16
g75
sba(icard_class
Card
p85
(dp86
g3
S'Brouillon utilis\xc3\xa9 recto-verso'
p87
sg5
g6
sg7
I01
sg8
g24
sg13
I0
sg14
S'card_brouillon'
p88
sg16
g75
sba(icard_class
Card
p89
(dp90
g3
S'Carton de colis'
p91
sg5
g21
sg7
I01
sg8
g24
sg13
I0
sg14
S'card_carton'
p92
sg16
g75
sba(icard_class
Card
p93
(dp94
g3
S'Sali\xc3\xa8re vide'
p95
sg5
S'Recyclage'
p96
sg7
I01
sg8
g24
sg13
I1
sg14
S'card_sel'
p97
sg16
g75
sba(icard_class
Card
p98
(dp99
g3
S"Ecorces d'orange"
p100
sg5
S'Ordures m\xc3\xa9nag\xc3\xa8res'
p101
sg7
I01
sg8
g24
sg13
I0
sg14
S'card_orange'
p102
sg16
g75
sba(icard_class
Card
p103
(dp104
g3
S'Ecorces de citron'
p105
sg5
S'Ordures m\xc3\xa9nag\xc3\xa8res'
p106
sg7
I01
sg8
g24
sg13
I0
sg14
S'card_citron'
p107
sg16
g75
sba(icard_class
Card
p108
(dp109
g3
S'Peau de pamplemousse'
p110
sg5
S'Ordures m\xc3\xa9nag\xc3\xa8res'
p111
sg7
I00
sg8
g39
sg13
I0
sg14
S'card_pamplemousse'
p112
sg16
g75
sba(icard_class
Card
p113
(dp114
g3
S'Trognon de pomme'
p115
sg5
S'Compost'
p116
sg7
I00
sg8
g9
(S'\x07\xe3\x05\x07\x11/1\x03\xb8\x85'
p117
tp118
Rp119
sg13
I0
sg14
S'card_pomme'
p120
sg16
g75
sba(icard_class
Card
p121
(dp122
g3
S'Brique de lait'
p123
sg5
S'Recyclage'
p124
sg7
I00
sg8
g61
sg13
I2
sg14
S'card_lait'
p125
sg16
g75
sba(icard_class
Card
p126
(dp127
g3
S"Aluminium d'une tablette de chocolat"
p128
sg5
S'Recyclage'
p129
sg7
I01
sg8
g24
sg13
I1
sg14
S'card_chocolat'
p130
sg16
g75
sba(icard_class
Card
p131
(dp132
g3
S'Assiette cass\xc3\xa9e'
p133
sg5
S'Ordures m\xc3\xa9nag\xc3\xa8res'
p134
sg7
I01
sg8
g9
(S'\x07\xe3\x04\x17\x0f(5\x01r\xbd'
p135
tp136
Rp137
sg13
I0
sg14
S'card_assiette'
p138
sg16
S'Waste'
p139
sba(icard_class
Card
p140
(dp141
g3
S'Conserve de flageolets'
p142
sg5
S'Recyclage'
p143
sg7
I01
sg8
g9
(S'\x07\xe3\x04\x17\x0f)\x1b\x07\xeat'
p144
tp145
Rp146
sg13
I0
sg14
S'card_flageolet'
p147
sg16
g139
sba(icard_class
Card
p148
(dp149
g3
S'Conserve de concentr\xc3\xa9 de tomate'
p150
sg5
S'Recyclage'
p151
sg7
I01
sg8
g9
(S'\x07\xe3\x04\x17\x0f);\x08!0'
p152
tp153
Rp154
sg13
I0
sg14
S'card_tomato_concentre'
p155
sg16
g139
sba(icard_class
Card
p156
(dp157
g3
S'Pot de sauce tomate'
p158
sg5
S'Verre'
p159
sg7
I00
sg8
g119
sg13
I1
sg14
S'card_sauce_tomate'
p160
sg16
g139
sba(icard_class
Card
p161
(dp162
g3
S'Pot de pesto'
p163
sg5
S'Verre'
p164
sg7
I01
sg8
g9
(S'\x07\xe3\x04\x17\x0f*)\r\xbe9'
p165
tp166
Rp167
sg13
I0
sg14
S'card_pesto'
p168
sg16
g139
sba(icard_class
Card
p169
(dp170
g3
S'Feuilles mortes'
p171
sg5
S'Compost'
p172
sg7
I01
sg8
g9
(S'\x07\xe3\x04\x17\x0f+\x02\x03b '
p173
tp174
Rp175
sg13
I0
sg14
S'card_feuilles'
p176
sg16
g139
sba(icard_class
Card
p177
(dp178
g3
S'Bouteille de vinaigre'
p179
sg5
S'Verre'
p180
sg7
I01
sg8
g9
(S'\x07\xe3\x04\x17\x0f+\x18\x07.\x15'
p181
tp182
Rp183
sg13
I0
sg14
S'card_vinaigre'
p184
sg16
g139
sba(icard_class
Card
p185
(dp186
g3
S'Bouteille de Corona'
p187
sg5
S'Verre'
p188
sg7
I01
sg8
g9
(S'\x07\xe3\x04\x17\x0f,\t\x04\xbd\xfd'
p189
tp190
Rp191
sg13
I0
sg14
S'card_biere'
p192
sg16
g139
sba(icard_class
Card
p193
(dp194
g3
S'Sachet de baguette'
p195
sg5
S'Compost'
p196
sg7
I00
sg8
g9
(S"\x07\xe3\x05\x07\x11.\x05\x01'\x04"
p197
tp198
Rp199
sg13
I1
sg14
S'card_sachet_pain'
p200
sg16
g139
sba(icard_class
Card
p201
(dp202
g3
S"Vieux four de l'anim"
p203
sg5
S'Electronique'
p204
sg7
I01
sg8
g9
(S'\x07\xe3\x04\x17\x0f50\x0cK\r'
p205
tp206
Rp207
sg13
I0
sg14
S'card_four'
p208
sg16
S'Waste'
p209
sba(icard_class
Card
p210
(dp211
g3
S'Neon'
p212
sg5
S'Ampoules'
p213
sg7
I01
sg8
g9
(S'\x07\xe3\x04\x17\x0f6\x04\x07\xe5u'
p214
tp215
Rp216
sg13
I0
sg14
S'card_neon'
p217
sg16
g209
sba(icard_class
Card
p218
(dp219
g3
S'Ampoule'
p220
sg5
S'Ampoules'
p221
sg7
I00
sg8
g39
sg13
I0
sg14
S'card_ampoule'
p222
sg16
g209
sba(icard_class
Card
p223
(dp224
g3
S'Vieux jean'
p225
sg5
S'Relais'
p226
sg7
I01
sg8
g9
(S'\x07\xe3\x04\x17\x10\x06\n\x05\x16\n'
p227
tp228
Rp229
sg13
I0
sg14
S'card_jean'
p230
sg16
S'Waste'
p231
sba(icard_class
Card
p232
(dp233
g3
S'Vieilles chaussures'
p234
sg5
S'Relais'
p235
sg7
I00
sg8
g119
sg13
I1
sg14
S'card_chaussure'
p236
sg16
g231
sba(icard_class
Card
p237
(dp238
g3
S'Vieux bonnet'
p239
sg5
S'Relais'
p240
sg7
I00
sg8
g73
sg13
I0
sg14
S'card_bonnet'
p241
sg16
g231
sba(icard_class
Card
p242
(dp243
g3
S'Chaussettes trou\xc3\xa9es'
p244
sg5
S'Ordures m\xc3\xa9nag\xc3\xa8res'
p245
sg7
I01
sg8
g9
(S'\x07\xe3\x04\x17\x10\x074\x08\x05\x13'
p246
tp247
Rp248
sg13
I0
sg14
S'crad_chaussette'
p249
sg16
g231
sba(icard_class
Card
p250
(dp251
g3
S'Vieux collants fil\xc3\xa9s'
p252
sg5
S'Ordures m\xc3\xa9nag\xc3\xa8res'
p253
sg7
I01
sg8
g9
(S'\x07\xe3\x04\x17\x10\x08\r\x03\x80\xa2'
p254
tp255
Rp256
sg13
I0
sg14
S'card_collant'
p257
sg16
g231
sba(icard_class
Card
p258
(dp259
g3
S'Cotons d\xc3\xa9maquillants'
p260
sg5
S'Ordures m\xc3\xa9nag\xc3\xa8res'
p261
sg7
I01
sg8
g9
(S'\x07\xe3\x04\x17\x10\t\t\x08b\xcb'
p262
tp263
Rp264
sg13
I0
sg14
S'card_coton'
p265
sg16
g231
sba(icard_class
Card
p266
(dp267
g3
S'Bouteille de shampoing'
p268
sg5
S'Recyclage'
p269
sg7
I00
sg8
g12
sg13
I0
sg14
S'card_shampoing'
p270
sg16
g231
sba(icard_class
Card
p271
(dp272
g3
S'Carton de papier toilette ou de sopalin'
p273
sg5
S'Compost'
p274
sg7
I01
sg8
g9
(S'\x07\xe3\x04\x17\x10\n\x1c\x07h\xc8'
p275
tp276
Rp277
sg13
I0
sg14
S'card_pq'
p278
sg16
g231
sba(icard_class
Card
p279
(dp280
g3
S'Mouchoires en papier'
p281
sg5
S'Compost'
p282
sg7
I00
sg8
g61
sg13
I0
sg14
S'card_mouchoire'
p283
sg16
g231
sba(icard_class
Card
p284
(dp285
g3
S'Essuie-tout'
p286
sg5
S'Compost'
p287
sg7
I01
sg8
g9
(S'\x07\xe3\x04\x17\x10\x0b\t\t\xf96'
p288
tp289
Rp290
sg13
I0
sg14
S'card_sopalin'
p291
sg16
g231
sba.