(lp0
(icard_class
Card
p1
(dp2
S'topside'
p3
S"Bouteille d'eau"
p4
sS'backside'
p5
S'R'
p6
sS'review'
p7
I01
sS'date'
p8
cdatetime
datetime
p9
(S'\x07\xe3\x05\x07\x0f2\x1e\x0e\x94\xc4'
p10
tp11
Rp12
sS'position'
p13
I3
sS'identifier'
p14
S'card_bouteille_eau'
p15
sS'subject'
p16
S'Waste'
p17
sba(icard_class
Card
p18
(dp19
g3
S'Epluchures de pomme de terre'
p20
sg5
S'C'
p21
sg7
I01
sg8
g9
(S'\x07\xe3\x04\x17\x0f\r\x14\x0b5h'
p22
tp23
Rp24
sg13
I0
sg14
S'card_patate'
p25
sS'edited_attribute'
p26
S'Epluchures de pomme de terre'
p27
sg16
g17
sba(icard_class
Card
p28
(dp29
g3
S'Bouteille de Vin'
p30
sg5
S'V'
p31
sg7
I01
sg8
g24
sg13
I2
sg14
S'card_bouteille_vin'
p32
sg16
g17
sba(icard_class
Card
p33
(dp34
g3
S'Bouchon de bouteille'
p35
sg5
S'B'
p36
sg7
I01
sg8
g9
(S'\x07\xe3\x05\x07\x0f:,\x03;\xa9'
p37
tp38
Rp39
sg13
I2
sg14
S'card_bouchon'
p40
sg16
g17
sba(icard_class
Card
p41
(dp42
g3
S'Epluchures de carottes'
p43
sg5
g21
sg7
I00
sg8
g9
(S'\x07\xe3\x05\x14\x10"5\r\x04t'
p44
tp45
Rp46
sg13
I2
sg14
S'card_epluchure'
p47
sg16
S'Waste'
p48
sba(icard_class
Card
p49
(dp50
g3
S"Rognures d'ongles"
p51
sg5
S'O'
p52
sg7
I00
sg8
g46
sg13
I3
sg14
S'card_rognures'
p53
sg16
g48
sba(icard_class
Card
p54
(dp55
g3
S'Os de poulet'
p56
sg5
g52
sg7
I01
sg8
g24
sg13
I0
sg14
S'card_os'
p57
sg16
g48
sba(icard_class
Card
p58
(dp59
g3
S'M\xc3\xa9got de cigarette'
p60
sg5
S'M'
p61
sg7
I01
sg8
g9
(S'\x07\xe3\x05\x07\x0f5#\t`\xa4'
p62
tp63
Rp64
sg13
I0
sg14
S'card_megot'
p65
sg16
g48
sba(icard_class
Card
p66
(dp67
g3
S'Paquet de p\xc3\xa2tes vide'
p68
sg5
g6
sg7
I01
sg8
g24
sg13
I1
sg14
S'card_paquet'
p69
sg16
g48
sba(icard_class
Card
p70
(dp71
g3
S'Piles us\xc3\xa9es'
p72
sg5
S'P'
p73
sg7
I01
sg8
g9
(S'\x07\xe3\x05\x07\x0f;2\x05.J'
p74
tp75
Rp76
sg13
I2
sg14
S'card_piles'
p77
sg16
S'Waste'
p78
sba(icard_class
Card
p79
(dp80
g3
S'CDrom ray\xc3\xa9'
p81
sg5
S'E'
p82
sg7
I01
sg8
g24
sg13
I1
sg14
S'card_CD'
p83
sg16
g78
sba(icard_class
Card
p84
(dp85
g3
S'Emballage de gateaux'
p86
sg5
g6
sg7
I01
sg8
g24
sg13
I1
sg14
S'card_paquet_gateau'
p87
sg16
g78
sba(icard_class
Card
p88
(dp89
g3
S'Brouillon utilis\xc3\xa9 recto-verso'
p90
sg5
g6
sg7
I01
sg8
g24
sg13
I0
sg14
S'card_brouillon'
p91
sg16
g78
sba(icard_class
Card
p92
(dp93
g3
S'Carton de colis'
p94
sg5
g21
sg7
I01
sg8
g24
sg13
I0
sg14
S'card_carton'
p95
sg16
g78
sba(icard_class
Card
p96
(dp97
g3
S'Sali\xc3\xa8re Cerebos vide'
p98
sg5
S'R'
p99
sg7
I01
sg8
g24
sg13
I1
sg14
S'card_sel'
p100
sg16
g78
sba(icard_class
Card
p101
(dp102
g3
S"Ecorces d'orange"
p103
sg5
S'O'
p104
sg7
I01
sg8
g24
sg13
I0
sg14
S'card_orange'
p105
sg16
g78
sba(icard_class
Card
p106
(dp107
g3
S'Ecorces de citron'
p108
sg5
g104
sg7
I01
sg8
g24
sg13
I0
sg14
S'card_citron'
p109
sg16
g78
sba(icard_class
Card
p110
(dp111
g3
S'Peau de pamplemousse'
p112
sg5
g104
sg7
I01
sg8
g39
sg13
I0
sg14
S'card_pamplemousse'
p113
sg16
g78
sba(icard_class
Card
p114
(dp115
g3
S'Trognon de pomme'
p116
sg5
S'C'
p117
sg7
I01
sg8
g9
(S'\x07\xe3\x05\x07\x11/1\x03\xb8\x85'
p118
tp119
Rp120
sg13
I0
sg14
S'card_pomme'
p121
sg16
g78
sba(icard_class
Card
p122
(dp123
g3
S'Brique de lait'
p124
sg5
g99
sg7
I01
sg8
g64
sg13
I2
sg14
S'card_lait'
p125
sg16
g78
sba(icard_class
Card
p126
(dp127
g3
S"Aluminium d'une tablette de chocolat"
p128
sg5
g99
sg7
I00
sg8
g46
sg13
I0
sg14
S'card_chocolat'
p129
sg16
g78
sba(icard_class
Card
p130
(dp131
g3
S'Assiette cass\xc3\xa9e'
p132
sg5
g104
sg7
I01
sg8
g9
(S'\x07\xe3\x04\x17\x0f(5\x01r\xbd'
p133
tp134
Rp135
sg13
I0
sg14
S'card_assiette'
p136
sg16
S'Waste'
p137
sba(icard_class
Card
p138
(dp139
g3
S'Conserve de flageolets'
p140
sg5
g99
sg7
I01
sg8
g9
(S'\x07\xe3\x04\x17\x0f)\x1b\x07\xeat'
p141
tp142
Rp143
sg13
I0
sg14
S'card_flageolet'
p144
sg16
g137
sba(icard_class
Card
p145
(dp146
g3
S'Conserve de concentr\xc3\xa9 de tomate'
p147
sg5
g99
sg7
I01
sg8
g9
(S'\x07\xe3\x04\x17\x0f);\x08!0'
p148
tp149
Rp150
sg13
I0
sg14
S'card_tomato_concentre'
p151
sg16
g137
sba(icard_class
Card
p152
(dp153
g3
S'Pot de sauce tomate'
p154
sg5
S'V'
p155
sg7
I01
sg8
g120
sg13
I1
sg14
S'card_sauce_tomate'
p156
sg16
g137
sba(icard_class
Card
p157
(dp158
g3
S'Pot de pesto'
p159
sg5
g155
sg7
I01
sg8
g9
(S'\x07\xe3\x04\x17\x0f*)\r\xbe9'
p160
tp161
Rp162
sg13
I0
sg14
S'card_pesto'
p163
sg16
g137
sba(icard_class
Card
p164
(dp165
g3
S'Feuilles mortes'
p166
sg5
g117
sg7
I00
sg8
g46
sg13
I0
sg14
S'card_feuilles'
p167
sg16
g137
sba(icard_class
Card
p168
(dp169
g3
S'Bouteille de vinaigre'
p170
sg5
g155
sg7
I01
sg8
g9
(S'\x07\xe3\x04\x17\x0f+\x18\x07.\x15'
p171
tp172
Rp173
sg13
I0
sg14
S'card_vinaigre'
p174
sg16
g137
sba(icard_class
Card
p175
(dp176
g3
S'Bouteille de Corona'
p177
sg5
g155
sg7
I00
sg8
g46
sg13
I0
sg14
S'card_biere'
p178
sg16
g137
sba(icard_class
Card
p179
(dp180
g3
S'Sachet de baguette'
p181
sg5
g117
sg7
I00
sg8
g46
sg13
I0
sg14
S'card_sachet_pain'
p182
sg16
g137
sba(icard_class
Card
p183
(dp184
g3
S"Vieux four de l'anim"
p185
sg5
S'E'
p186
sg7
I00
sg8
g46
sg13
I0
sg14
S'card_four'
p187
sg16
S'Waste'
p188
sba(icard_class
Card
p189
(dp190
g3
S'Neon'
p191
sg5
S'A'
p192
sg7
I01
sg8
g9
(S'\x07\xe3\x04\x17\x0f6\x04\x07\xe5u'
p193
tp194
Rp195
sg13
I0
sg14
S'card_neon'
p196
sg16
g188
sba(icard_class
Card
p197
(dp198
g3
S'Ampoule'
p199
sg5
g192
sg7
I01
sg8
g39
sg13
I0
sg14
S'card_ampoule'
p200
sg16
g188
sba(icard_class
Card
p201
(dp202
g3
S'Vieux jean'
p203
sg5
S'T'
p204
sg7
I01
sg8
g9
(S'\x07\xe3\x04\x17\x10\x06\n\x05\x16\n'
p205
tp206
Rp207
sg13
I0
sg14
S'card_jean'
p208
sg16
S'Waste'
p209
sba(icard_class
Card
p210
(dp211
g3
S'Vieilles chaussures'
p212
sg5
g204
sg7
I01
sg8
g120
sg13
I1
sg14
S'card_chaussure'
p213
sg16
g209
sba(icard_class
Card
p214
(dp215
g3
S'Vieux bonnet'
p216
sg5
g204
sg7
I01
sg8
g76
sg13
I0
sg14
S'card_bonnet'
p217
sg16
g209
sba(icard_class
Card
p218
(dp219
g3
S'Chaussettes trou\xc3\xa9es'
p220
sg5
S'Ordures m\xc3\xa9nag\xc3\xa8res'
p221
sg7
I01
sg8
g9
(S'\x07\xe3\x04\x17\x10\x074\x08\x05\x13'
p222
tp223
Rp224
sg13
I0
sg14
S'crad_chaussette'
p225
sg16
g209
sba(icard_class
Card
p226
(dp227
g3
S'Vieux collants fil\xc3\xa9s'
p228
sg5
S'O'
p229
sg7
I01
sg8
g9
(S'\x07\xe3\x04\x17\x10\x08\r\x03\x80\xa2'
p230
tp231
Rp232
sg13
I0
sg14
S'card_collant'
p233
sg16
g209
sba(icard_class
Card
p234
(dp235
g3
S'Cotons d\xc3\xa9maquillants'
p236
sg5
g229
sg7
I01
sg8
g9
(S'\x07\xe3\x04\x17\x10\t\t\x08b\xcb'
p237
tp238
Rp239
sg13
I0
sg14
S'card_coton'
p240
sg16
g209
sba(icard_class
Card
p241
(dp242
g3
S'Bouteille de shampoing'
p243
sg5
S'R'
p244
sg7
I01
sg8
g12
sg13
I0
sg14
S'card_shampoing'
p245
sg16
g209
sba(icard_class
Card
p246
(dp247
g3
S'Carton de papier toilette ou de sopalin'
p248
sg5
S'C'
p249
sg7
I01
sg8
g9
(S'\x07\xe3\x04\x17\x10\n\x1c\x07h\xc8'
p250
tp251
Rp252
sg13
I0
sg14
S'card_pq'
p253
sg16
g209
sba(icard_class
Card
p254
(dp255
g3
S'Mouchoires en papier'
p256
sg5
g249
sg7
I01
sg8
g64
sg13
I0
sg14
S'card_mouchoire'
p257
sg16
g209
sba(icard_class
Card
p258
(dp259
g3
S'Essuie-tout'
p260
sg5
g249
sg7
I01
sg8
g9
(S'\x07\xe3\x04\x17\x10\x0b\t\t\xf96'
p261
tp262
Rp263
sg13
I0
sg14
S'card_sopalin'
p264
sg16
g209
sba(icard_class
Card
p265
(dp266
g3
S'Brique de jus de fruit'
p267
sg5
g244
sg7
I01
sg8
g9
(S'\x07\xe3\x05\x14\x11*.\x02\xaf\x87'
p268
tp269
Rp270
sg13
I0
sg14
S'card_brique'
p271
sg16
S'Waste'
p272
sba(icard_class
Card
p273
(dp274
g3
S'Gourde de compote'
p275
sg5
g244
sg7
I01
sg8
g9
(S'\x07\xe3\x05\x14\x11+\n\x0c\xed\x10'
p276
tp277
Rp278
sg13
I0
sg14
S'card_pompote'
p279
sg16
g272
sba(icard_class
Card
p280
(dp281
g3
S'Gourde de Caprisun'
p282
sg5
g244
sg7
I01
sg8
g9
(S'\x07\xe3\x05\x14\x11+\x1e\x01\xb30'
p283
tp284
Rp285
sg13
I0
sg14
S'card_caprisun'
p286
sg16
g272
sba(icard_class
Card
p287
(dp288
g3
S'Vieux telephone'
p289
sg5
S'E'
p290
sg7
I01
sg8
g9
(S'\x07\xe3\x05\x14\x11+5\n\xde\x82'
p291
tp292
Rp293
sg13
I0
sg14
S'card_telephone'
p294
sg16
g272
sba(icard_class
Card
p295
(dp296
g3
S'Pot de confiture vide'
p297
sg5
S'V'
p298
sg7
I01
sg8
g9
(S'\x07\xe3\x05\x14\x11,\x16\x06:\x9a'
p299
tp300
Rp301
sg13
I0
sg14
S'card_confiture'
p302
sg16
g272
sba(icard_class
Card
p303
(dp304
g3
S'Pot de miel vide'
p305
sg5
g298
sg7
I01
sg8
g9
(S'\x07\xe3\x05\x14\x11,"\x01T\xfc'
p306
tp307
Rp308
sg13
I0
sg14
S'card_miel'
p309
sg16
g272
sba(icard_class
Card
p310
(dp311
g3
S'Flacon de ketchup/mayo/moutarde vide'
p312
sg5
g244
sg7
I01
sg8
g9
(S'\x07\xe3\x05\x14\x11,9\x06\xaeX'
p313
tp314
Rp315
sg13
I0
sg14
S'card_ketchup'
p316
sg16
g272
sba(icard_class
Card
p317
(dp318
g3
S"Flacon de produit d'entretien vide"
p319
sg5
g244
sg7
I01
sg8
g9
(S'\x07\xe3\x05\x14\x11-\x17\x02p\xed'
p320
tp321
Rp322
sg13
I0
sg14
S'card_entretien'
p323
sg16
g272
sba(icard_class
Card
p324
(dp325
g3
S'Draps us\xc3\xa9s'
p326
sg5
g204
sg7
I01
sg8
g9
(S'\x07\xe3\x05\x14\x11-,\n\xbd\xf1'
p327
tp328
Rp329
sg13
I0
sg14
S'card_drap'
p330
sg16
g272
sba(icard_class
Card
p331
(dp332
g3
S'Tube de dentifrice'
p333
sg5
g244
sg7
I01
sg8
g9
(S'\x07\xe3\x05\x14\x11-9\x08.\x08'
p334
tp335
Rp336
sg13
I0
sg14
S'card_dentifrice'
p337
sg16
g272
sba(icard_class
Card
p338
(dp339
g3
S'Brosse \xc3\xa0 dents us\xc3\xa9e'
p340
sg5
g244
sg7
I01
sg8
g9
(S'\x07\xe3\x05\x14\x11.\x10\x06z\x9d'
p341
tp342
Rp343
sg13
I0
sg14
S'card_brosse_dents'
p344
sg16
g272
sba(icard_class
Card
p345
(dp346
g3
S'Bouquet fan\xc3\xa9'
p347
sg5
g249
sg7
I01
sg8
g9
(S'\x07\xe3\x05\x14\x11.&\x0b\xd8H'
p348
tp349
Rp350
sg13
I0
sg14
S'card_bouquet'
p351
sg16
g272
sba(icard_class
Card
p352
(dp353
g3
S'Nappe trou\xc3\xa9e'
p354
sg5
g204
sg7
I01
sg8
g9
(S'\x07\xe3\x05\x14\x11.3\x04\xc4\xf9'
p355
tp356
Rp357
sg13
I0
sg14
S'card_nappe'
p358
sg16
g272
sba(icard_class
Card
p359
(dp360
g3
S'Vieux T_Shirt '
p361
sg5
g204
sg7
I01
sg8
g9
(S'\x07\xe3\x05\x14\x11/\r\x02\xb2\x17'
p362
tp363
Rp364
sg13
I0
sg14
S'card_tshirt'
p365
sg16
g272
sba(icard_class
Card
p366
(dp367
g3
S'Vieux pull'
p368
sg5
g204
sg7
I01
sg8
g9
(S'\x07\xe3\x05\x14\x11/\x18\x01\xb5}'
p369
tp370
Rp371
sg13
I0
sg14
S'card_pull'
p372
sg16
g272
sba(icard_class
Card
p373
(dp374
g3
S'Vieilles sandales'
p375
sg5
g204
sg7
I01
sg8
g9
(S'\x07\xe3\x05\x14\x11/(\x08\xcbh'
p376
tp377
Rp378
sg13
I0
sg14
S'card_sandales'
p379
sg16
g272
sba(icard_class
Card
p380
(dp381
g3
S'Vieilles tongs'
p382
sg5
g204
sg7
I01
sg8
g9
(S'\x07\xe3\x05\x14\x11/4\x0f=\xf4'
p383
tp384
Rp385
sg13
I0
sg14
S'card_tongs'
p386
sg16
g272
sba(icard_class
Card
p387
(dp388
g3
S'Croutes de fromage'
p389
sg5
g229
sg7
I01
sg8
g9
(S'\x07\xe3\x05\x14\x110\x07\x02j\xb7'
p390
tp391
Rp392
sg13
I0
sg14
S'card_fromage'
p393
sg16
g272
sba(icard_class
Card
p394
(dp395
g3
S'Mauvais morceaux de viande'
p396
sg5
g229
sg7
I01
sg8
g9
(S'\x07\xe3\x05\x14\x110(\n\xc0}'
p397
tp398
Rp399
sg13
I0
sg14
S'card_viande'
p400
sg16
g272
sba(icard_class
Card
p401
(dp402
g3
S"Coquilles d'oeufs"
p403
sg5
g249
sg7
I01
sg8
g9
(S'\x07\xe3\x05\x14\x111\n\r\xec\x90'
p404
tp405
Rp406
sg13
I0
sg14
S'card_oeuf'
p407
sg16
g272
sba(icard_class
Card
p408
(dp409
g3
S'Peau de melon ou de pasteque'
p410
sg5
g249
sg7
I01
sg8
g9
(S'\x07\xe3\x05\x14\x111(\x0e\n\x9b'
p411
tp412
Rp413
sg13
I0
sg14
S'card_peau_melon'
p414
sg16
g272
sba(icard_class
Card
p415
(dp416
g3
S'Peau de kiwi'
p417
sg5
g249
sg7
I01
sg8
g9
(S'\x07\xe3\x05\x14\x1117\x02\x93\xe6'
p418
tp419
Rp420
sg13
I0
sg14
S'card_peau_kiwi'
p421
sg16
g272
sba(icard_class
Card
p422
(dp423
g3
S'Couenne de jambon'
p424
sg5
g229
sg7
I01
sg8
g9
(S'\x07\xe3\x05\x14\x112\t\n\xe1"'
p425
tp426
Rp427
sg13
I0
sg14
S'card_couenne'
p428
sg16
g272
sba(icard_class
Card
p429
(dp430
g3
S"Queues d'haricots"
p431
sg5
g249
sg7
I01
sg8
g9
(S'\x07\xe3\x05\x14\x112\x1f\nE|'
p432
tp433
Rp434
sg13
I0
sg14
S'card_queue_legume'
p435
sg16
g272
sba(icard_class
Card
p436
(dp437
g3
S'Eponge us\xc3\xa9e'
p438
sg5
g229
sg7
I01
sg8
g9
(S'\x07\xe3\x05\x14\x112,\x03\x07]'
p439
tp440
Rp441
sg13
I0
sg14
S'card_eponge'
p442
sg16
g272
sba(icard_class
Card
p443
(dp444
g3
S'Serpillere us\xc3\xa9e'
p445
sg5
g229
sg7
I01
sg8
g9
(S'\x07\xe3\x05\x14\x113\x01\x0f\x06\x9a'
p446
tp447
Rp448
sg13
I0
sg14
S'card_serpillere'
p449
sg16
g272
sba(icard_class
Card
p450
(dp451
g3
S'Stylo bic'
p452
sg5
g244
sg7
I01
sg8
g9
(S"\x07\xe3\x05\x14\x113\x1b\x04'\xa8"
p453
tp454
Rp455
sg13
I0
sg14
S'card_stylo'
p456
sg16
g272
sba(icard_class
Card
p457
(dp458
g3
S'Crayon de papier'
p459
sg5
g249
sg7
I01
sg8
g9
(S'\x07\xe3\x05\x14\x113&\x05\xde\xed'
p460
tp461
Rp462
sg13
I0
sg14
S'card_crayon'
p463
sg16
g272
sba(icard_class
Card
p464
(dp465
g3
S'Epluchures de gomme'
p466
sg5
g229
sg7
I01
sg8
g9
(S'\x07\xe3\x05\x14\x114\t\x0b\x01D'
p467
tp468
Rp469
sg13
I0
sg14
S'card_gomme'
p470
sg16
g272
sba(icard_class
Card
p471
(dp472
g3
S'Regle gradu\xc3\xa9e'
p473
sg5
g244
sg7
I01
sg8
g9
(S'\x07\xe3\x05\x14\x114\x17\x0e+\xed'
p474
tp475
Rp476
sg13
I0
sg14
S'card_regle'
p477
sg16
g272
sba(icard_class
Card
p478
(dp479
g3
S'Serviette hygienique'
p480
sg5
g229
sg7
I01
sg8
g9
(S'\x07\xe3\x05\x14\x114)\x0c\x97\xd2'
p481
tp482
Rp483
sg13
I0
sg14
S'card_serviette_hygienique'
p484
sg16
g272
sba(icard_class
Card
p485
(dp486
g3
S'Tampon usag\xc3\xa9'
p487
sg5
g229
sg7
I01
sg8
g9
(S'\x07\xe3\x05\x14\x1148\x02\xcb`'
p488
tp489
Rp490
sg13
I0
sg14
S'card_tampon'
p491
sg16
g272
sba(icard_class
Card
p492
(dp493
g3
S'Fruit pourri'
p494
sg5
g249
sg7
I01
sg8
g9
(S'\x07\xe3\x05\x14\x115\x07\x02s\xa5'
p495
tp496
Rp497
sg13
I0
sg14
S'card_fruit'
p498
sg16
g272
sba(icard_class
Card
p499
(dp500
g3
S'Legume rassi'
p501
sg5
g249
sg7
I01
sg8
g9
(S'\x07\xe3\x05\x14\x115\x12\t\x0c\x81'
p502
tp503
Rp504
sg13
I0
sg14
S'card_legume'
p505
sg16
g272
sba(icard_class
Card
p506
(dp507
g3
S'The et sachet de the'
p508
sg5
g249
sg7
I01
sg8
g9
(S'\x07\xe3\x05\x14\x115#\n\x00\x19'
p509
tp510
Rp511
sg13
I0
sg14
S'card_the'
p512
sg16
g272
sba(icard_class
Card
p513
(dp514
g3
S'Marc de cafe'
p515
sg5
g249
sg7
I01
sg8
g9
(S'\x07\xe3\x05\x14\x115.\x08\x12&'
p516
tp517
Rp518
sg13
I0
sg14
S'card_cafe'
p519
sg16
g272
sba(icard_class
Card
p520
(dp521
g3
S'Paille de boisson'
p522
sg5
g244
sg7
I01
sg8
g9
(S'\x07\xe3\x05\x14\x116\x06\t\xe9<'
p523
tp524
Rp525
sg13
I0
sg14
S'card_paille'
p526
sg16
g272
sba(icard_class
Card
p527
(dp528
g3
S'Gobelet de la cafeteria'
p529
sg5
g244
sg7
I01
sg8
g9
(S'\x07\xe3\x05\x14\x116\x14\r\x92\xce'
p530
tp531
Rp532
sg13
I0
sg14
S'card_gobelet'
p533
sg16
g272
sba(icard_class
Card
p534
(dp535
g3
S'Pot de yaourt en plastique'
p536
sg5
g244
sg7
I01
sg8
g9
(S"\x07\xe3\x05\x14\x116'\x08\n\xe9"
p537
tp538
Rp539
sg13
I0
sg14
S'card_yaourt'
p540
sg16
g272
sba(icard_class
Card
p541
(dp542
g3
S"Boite d'oeufs"
p543
sg5
g249
sg7
I01
sg8
g9
(S'\x07\xe3\x05\x14\x1165\x06T\xe9'
p544
tp545
Rp546
sg13
I0
sg14
S'card_boite_oeuf'
p547
sg16
g272
sba(icard_class
Card
p548
(dp549
g3
S'Restant de cigare'
p550
sg5
S'M'
p551
sg7
I01
sg8
g9
(S'\x07\xe3\x05\x14\x117\x08\x02wR'
p552
tp553
Rp554
sg13
I0
sg14
S'card_cigare'
p555
sg16
g272
sba(icard_class
Card
p556
(dp557
g3
S'Alumette usag\xc3\xa9e'
p558
sg5
g249
sg7
I01
sg8
g9
(S'\x07\xe3\x05\x14\x117\x18\x0bx\xb6'
p559
tp560
Rp561
sg13
I0
sg14
S'card_alumette'
p562
sg16
g272
sba(icard_class
Card
p563
(dp564
g3
S'Couverts en plastique'
p565
sg5
g244
sg7
I01
sg8
g9
(S'\x07\xe3\x05\x14\x117*\rL\xbd'
p566
tp567
Rp568
sg13
I0
sg14
S'card_couverts'
p569
sg16
g272
sba(icard_class
Card
p570
(dp571
g3
S'Assiettes \xc3\xa0 usage unique'
p572
sg5
g244
sg7
I01
sg8
g9
(S'\x07\xe3\x05\x14\x118\x01\x04\xc5['
p573
tp574
Rp575
sg13
I0
sg14
S'card_assiette_carton'
p576
sg16
g272
sba(icard_class
Card
p577
(dp578
g3
S'Pot de creme en plastique'
p579
sg5
g244
sg7
I01
sg8
g9
(S'\x07\xe3\x05\x14\x118\x11\x03j\xf0'
p580
tp581
Rp582
sg13
I0
sg14
S'card_creme'
p583
sg16
g272
sba(icard_class
Card
p584
(dp585
g3
S'Cahier'
p586
sg5
g244
sg7
I01
sg8
g9
(S'\x07\xe3\x05\x14\x118\x1e\n\x9dR'
p587
tp588
Rp589
sg13
I0
sg14
S'card_cahier'
p590
sg16
g272
sba(icard_class
Card
p591
(dp592
g3
S'test'
p593
sg5
S'test'
p594
sg7
I01
sg8
g9
(S"\x07\xe3\x05\x16\t'\x17\x04\xd8."
p595
tp596
Rp597
sg13
I0
sg14
S'card_test'
p598
sg16
S'Waste'
p599
sba.