(lp0
(icardclass
Card
p1
(dp2
S'topside'
p3
S"Bouteille d'eau"
p4
sS'backside'
p5
S'Recyclage'
p6
sS'review'
p7
I00
sS'date'
p8
cdatetime
datetime
p9
(S'\x07\xe3\x04\x17\x0f\r\x14\x0b5h'
p10
tp11
Rp12
sS'position'
p13
I2
sS'identifier'
p14
S'card_bouteille_eau'
p15
sS'subject'
p16
S'Waste'
p17
sba(icardclass
Card
p18
(dp19
g3
S'Pomme de terre'
p20
sg5
S'Compost'
p21
sg7
I00
sg8
g12
sg13
I0
sg14
S'card_patate'
p22
sS'edited_attribute'
p23
S'True'
p24
sg16
g17
sba(icardclass
Card
p25
(dp26
g3
S'Bouteille de Vin'
p27
sg5
S'Verre'
p28
sg7
I00
sg8
g12
sg13
I2
sg14
S'card_bouteille_vin'
p29
sg16
g17
sba(icardclass
Card
p30
(dp31
g3
S'Bouchon de bouteille'
p32
sg5
S'Bouchon'
p33
sg7
I00
sg8
g12
sg13
I1
sg14
S'card_bouchon'
p34
sg16
g17
sba(icardclass
Card
p35
(dp36
g3
S'Epluchures de carottes'
p37
sg5
S'Compost'
p38
sg7
I00
sg8
g12
sg13
I1
sg14
S'card_epluchure'
p39
sg16
S'Waste'
p40
sba(icardclass
Card
p41
(dp42
g3
S"Rognures d'ongles"
p43
sg5
S'Ordures m\xc3\xa9nag\xc3\xa8res'
p44
sg7
I00
sg8
g12
sg13
I2
sg14
S'card_rognures'
p45
sg16
g40
sba(icardclass
Card
p46
(dp47
g3
S'Os de poulet'
p48
sg5
S'Ordures m\xc3\xa9nag\xc3\xa8res'
p49
sg7
I00
sg8
g12
sg13
I0
sg14
S'card_viande'
p50
sg16
g40
sba(icardclass
Card
p51
(dp52
g3
S'M\xc3\xa9got de cigarette'
p53
sg5
S'Cendrier'
p54
sg7
I00
sg8
g12
sg13
I1
sg14
S'card_megot'
p55
sg16
g40
sba(icardclass
Card
p56
(dp57
g3
S'Paquet de p\xc3\xa2tes vide'
p58
sg5
S'Recyclage'
p59
sg7
I00
sg8
g12
sg13
I1
sg14
S'card_paquet'
p60
sg16
g40
sba(icardclass
Card
p61
(dp62
g3
S'Piles us\xc3\xa9es'
p63
sg5
S'Piles'
p64
sg7
I00
sg8
g12
sg13
I1
sg14
S'card_piles'
p65
sg16
S'Waste'
p66
sba(icardclass
Card
p67
(dp68
g3
S'CDrom ray\xc3\xa9'
p69
sg5
S'Electronique'
p70
sg7
I00
sg8
g12
sg13
I1
sg14
S'card_CD'
p71
sg16
g66
sba(icardclass
Card
p72
(dp73
g3
S'Emballage de gateaux'
p74
sg5
S'Recyclage'
p75
sg7
I00
sg8
g12
sg13
I1
sg14
S'card_paquet_gateau'
p76
sg16
g66
sba(icardclass
Card
p77
(dp78
g3
S'Brouillon utilis\xc3\xa9 recto-verso'
p79
sg5
S'Recyclage'
p80
sg7
I00
sg8
g12
sg13
I0
sg14
S'card_brouillon'
p81
sg16
g66
sba(icardclass
Card
p82
(dp83
g3
S'Carton de colis'
p84
sg5
S'Compost'
p85
sg7
I00
sg8
g12
sg13
I0
sg14
S'card_carton'
p86
sg16
g66
sba(icardclass
Card
p87
(dp88
g3
S'Sali\xc3\xa8re vide'
p89
sg5
S'Recyclage'
p90
sg7
I00
sg8
g12
sg13
I1
sg14
S'card_sel'
p91
sg16
g66
sba(icardclass
Card
p92
(dp93
g3
S"Ecorces d'orange"
p94
sg5
S'Ordures m\xc3\xa9nag\xc3\xa8res'
p95
sg7
I00
sg8
g12
sg13
I0
sg14
S'card_orange'
p96
sg16
g66
sba(icardclass
Card
p97
(dp98
g3
S'Ecorces de citron'
p99
sg5
S'Ordures m\xc3\xa9nag\xc3\xa8res'
p100
sg7
I00
sg8
g12
sg13
I0
sg14
S'card_citron'
p101
sg16
g66
sba(icardclass
Card
p102
(dp103
g3
S'Peau de pamplemousse'
p104
sg5
S'Ordures m\xc3\xa9nag\xc3\xa8res'
p105
sg7
I00
sg8
g12
sg13
I0
sg14
S'card_pamplemousse'
p106
sg16
g66
sba(icardclass
Card
p107
(dp108
g3
S'Trognon de pomme'
p109
sg5
S'Compost'
p110
sg7
I00
sg8
g12
sg13
I1
sg14
S'card_pomme'
p111
sg16
g66
sba(icardclass
Card
p112
(dp113
g3
S'Brique de lait'
p114
sg5
S'Recyclage'
p115
sg7
I00
sg8
g12
sg13
I1
sg14
S'card_lait'
p116
sg16
g66
sba(icardclass
Card
p117
(dp118
g3
S"Aluminium d'une tablette de chocolat"
p119
sg5
S'Recyclage'
p120
sg7
I00
sg8
g12
sg13
I1
sg14
S'card_chocolat'
p121
sg16
g66
sba(icardclass
Card
p122
(dp123
g3
S'Assiette cass\xc3\xa9e'
p124
sg5
S'Ordures m\xc3\xa9nag\xc3\xa8res'
p125
sg7
I01
sg8
g9
(S'\x07\xe3\x04\x17\x0f(5\x01r\xbd'
p126
tp127
Rp128
sg13
I0
sg14
S'card_assiette'
p129
sg16
S'Waste'
p130
sba(icardclass
Card
p131
(dp132
g3
S'Conserve de flageolets'
p133
sg5
S'Recyclage'
p134
sg7
I01
sg8
g9
(S'\x07\xe3\x04\x17\x0f)\x1b\x07\xeat'
p135
tp136
Rp137
sg13
I0
sg14
S'card_flageolet'
p138
sg16
g130
sba(icardclass
Card
p139
(dp140
g3
S'Conserve de concentr\xc3\xa9 de tomate'
p141
sg5
S'Recyclage'
p142
sg7
I01
sg8
g9
(S'\x07\xe3\x04\x17\x0f);\x08!0'
p143
tp144
Rp145
sg13
I0
sg14
S'card_tomato_concentre'
p146
sg16
g130
sba(icardclass
Card
p147
(dp148
g3
S'Pot de sauce tomate'
p149
sg5
S'Verre'
p150
sg7
I01
sg8
g9
(S'\x07\xe3\x04\x17\x0f*\x15\x011z'
p151
tp152
Rp153
sg13
I0
sg14
S'card_sauce_tomate'
p154
sg16
g130
sba(icardclass
Card
p155
(dp156
g3
S'Pot de pesto'
p157
sg5
S'Verre'
p158
sg7
I01
sg8
g9
(S'\x07\xe3\x04\x17\x0f*)\r\xbe9'
p159
tp160
Rp161
sg13
I0
sg14
S'card_pesto'
p162
sg16
g130
sba(icardclass
Card
p163
(dp164
g3
S'Feuilles mortes'
p165
sg5
S'Compost'
p166
sg7
I01
sg8
g9
(S'\x07\xe3\x04\x17\x0f+\x02\x03b '
p167
tp168
Rp169
sg13
I0
sg14
S'card_feuilles'
p170
sg16
g130
sba(icardclass
Card
p171
(dp172
g3
S'Bouteille de vinaigre'
p173
sg5
S'Verre'
p174
sg7
I01
sg8
g9
(S'\x07\xe3\x04\x17\x0f+\x18\x07.\x15'
p175
tp176
Rp177
sg13
I0
sg14
S'card_vinaigre'
p178
sg16
g130
sba(icardclass
Card
p179
(dp180
g3
S'Bouteille de Corona'
p181
sg5
S'Verre'
p182
sg7
I01
sg8
g9
(S'\x07\xe3\x04\x17\x0f,\t\x04\xbd\xfd'
p183
tp184
Rp185
sg13
I0
sg14
S'card_biere'
p186
sg16
g130
sba(icardclass
Card
p187
(dp188
g3
S'Sachet de baguette'
p189
sg5
S'Compost'
p190
sg7
I01
sg8
g9
(S'\x07\xe3\x04\x17\x0f,\x1f\x00\x19z'
p191
tp192
Rp193
sg13
I0
sg14
S'card_sachet_pain'
p194
sg16
g130
sba.