(lp0
(icardclass
Card
p1
(dp2
S'topside'
p3
S"Bouteille d'eau"
p4
sS'backside'
p5
S'Recyclage'
p6
sS'review'
p7
I01
sS'date'
p8
cdatetime
datetime
p9
(S'\x07\xe3\x04\x0f\x10&\x0f\x05i\x1d'
p10
tp11
Rp12
sS'position'
p13
I0
sS'identifier'
p14
S'card_bouteille_eau'
p15
sS'subject'
p16
S'Waste'
p17
sba(icardclass
Card
p18
(dp19
g3
S'Pomme de terre'
p20
sg5
S'Compost'
p21
sg7
I01
sg8
g9
(S'\x07\xe3\x04\x0f\x10&*\tP\xfe'
p22
tp23
Rp24
sg13
I0
sg14
S'card_patate'
p25
sg16
g17
sba(icardclass
Card
p26
(dp27
g3
S'Bouteille de Vin'
p28
sg5
S'Verre'
p29
sg7
I01
sg8
g9
(S"\x07\xe3\x04\x0f\x10'\x0f\x0e\xee\xfc"
p30
tp31
Rp32
sg13
I0
sg14
S'card_bouteille_vin'
p33
sg16
g17
sba(icardclass
Card
p34
(dp35
g3
S'Bouchon de bouteille'
p36
sg5
S'Bouchon'
p37
sg7
I01
sg8
g9
(S"\x07\xe3\x04\x0f\x10'/\x02<\x8e"
p38
tp39
Rp40
sg13
I0
sg14
S'card_bouchon'
p41
sg16
g17
sba(icardclass
Card
p42
(dp43
g3
S'Epluchures de carottes'
p44
sg5
S'Compost'
p45
sg7
I01
sg8
g9
(S'\x07\xe3\x04\x0f\x10)\r\x01\x9f\x19'
p46
tp47
Rp48
sg13
I0
sg14
S'card_epluchure'
p49
sg16
S'Waste'
p50
sba(icardclass
Card
p51
(dp52
g3
S"Rognures d'ongles"
p53
sg5
S'Ordures m\xc3\xa9nag\xc3\xa8res'
p54
sg7
I01
sg8
g9
(S'\x07\xe3\x04\x0f\x10)%\x02\xba\xb5'
p55
tp56
Rp57
sg13
I0
sg14
S'card_rognures'
p58
sg16
g50
sba(icardclass
Card
p59
(dp60
g3
S'Os de poulet'
p61
sg5
S'Ordures m\xc3\xa9nag\xc3\xa8res'
p62
sg7
I01
sg8
g9
(S'\x07\xe3\x04\x0f\x10)8\x0e\x91\x1f'
p63
tp64
Rp65
sg13
I0
sg14
S'card_viande'
p66
sg16
g50
sba(icardclass
Card
p67
(dp68
g3
S'M\xc3\xa9got de cigarette'
p69
sg5
S'Cendrier'
p70
sg7
I01
sg8
g9
(S'\x07\xe3\x04\x0f\x10*0\x05\xe5\xec'
p71
tp72
Rp73
sg13
I0
sg14
S'card_megot'
p74
sg16
g50
sba(icardclass
Card
p75
(dp76
g3
S'Paquet de p\xc3\xa2tes vide'
p77
sg5
S'Recyclage'
p78
sg7
I01
sg8
g9
(S'\x07\xe3\x04\x0f\x10+.\x05\xc74'
p79
tp80
Rp81
sg13
I0
sg14
S'card_paquet'
p82
sg16
g50
sba.