(lp0
(icardclass
Card
p1
(dp2
S'topside'
p3
S"Bouteille d'eau"
p4
sS'backside'
p5
S'Recyclage'
p6
sS'review'
p7
I00
sS'date'
p8
cdatetime
datetime
p9
(S'\x07\xe3\x04\x10\x1187\x03\x93\xad'
p10
tp11
Rp12
sS'position'
p13
I1
sS'identifier'
p14
S'card_bouteille_eau'
p15
sS'subject'
p16
S'Waste'
p17
sba(icardclass
Card
p18
(dp19
g3
S'Pomme de terre'
p20
sg5
S'Compost'
p21
sg7
I00
sg8
g12
sg13
I1
sg14
S'card_patate'
p22
sg16
g17
sba(icardclass
Card
p23
(dp24
g3
S'Bouteille de Vin'
p25
sg5
S'Verre'
p26
sg7
I00
sg8
g12
sg13
I1
sg14
S'card_bouteille_vin'
p27
sg16
g17
sba(icardclass
Card
p28
(dp29
g3
S'Bouchon de bouteille'
p30
sg5
S'Bouchon'
p31
sg7
I00
sg8
g12
sg13
I0
sg14
S'card_bouchon'
p32
sg16
g17
sba(icardclass
Card
p33
(dp34
g3
S'Epluchures de carottes'
p35
sg5
S'Compost'
p36
sg7
I00
sg8
g12
sg13
I0
sg14
S'card_epluchure'
p37
sg16
S'Waste'
p38
sba(icardclass
Card
p39
(dp40
g3
S"Rognures d'ongles"
p41
sg5
S'Ordures m\xc3\xa9nag\xc3\xa8res'
p42
sg7
I00
sg8
g12
sg13
I1
sg14
S'card_rognures'
p43
sg16
g38
sba(icardclass
Card
p44
(dp45
g3
S'Os de poulet'
p46
sg5
S'Ordures m\xc3\xa9nag\xc3\xa8res'
p47
sg7
I00
sg8
g12
sg13
I0
sg14
S'card_viande'
p48
sg16
g38
sba(icardclass
Card
p49
(dp50
g3
S'M\xc3\xa9got de cigarette'
p51
sg5
S'Cendrier'
p52
sg7
I00
sg8
g12
sg13
I0
sg14
S'card_megot'
p53
sg16
g38
sba(icardclass
Card
p54
(dp55
g3
S'Paquet de p\xc3\xa2tes vide'
p56
sg5
S'Recyclage'
p57
sg7
I00
sg8
g12
sg13
I0
sg14
S'card_paquet'
p58
sg16
g38
sba(icardclass
Card
p59
(dp60
g3
S'Piles us\xc3\xa9es'
p61
sg5
S'Piles'
p62
sg7
I01
sg8
g9
(S'\x07\xe3\x04\x12\x11\x1c\x06\x07\xb2\x15'
p63
tp64
Rp65
sg13
I0
sg14
S'card_piles'
p66
sg16
S'Waste'
p67
sba(icardclass
Card
p68
(dp69
g3
S'CDrom ray\xc3\xa9'
p70
sg5
S'Electronique'
p71
sg7
I01
sg8
g9
(S'\x07\xe3\x04\x12\x11\x1c\x18\x07t`'
p72
tp73
Rp74
sg13
I0
sg14
S'card_CD'
p75
sg16
g67
sba(icardclass
Card
p76
(dp77
g3
S'Emballage de gateaux'
p78
sg5
S'Recyclage'
p79
sg7
I01
sg8
g9
(S'\x07\xe3\x04\x12\x11\x1c4\x0b\x1d.'
p80
tp81
Rp82
sg13
I0
sg14
S'card_paquet_gateau'
p83
sg16
g67
sba(icardclass
Card
p84
(dp85
g3
S'Brouillon utilis\xc3\xa9 recto-verso'
p86
sg5
S'Recyclage'
p87
sg7
I01
sg8
g9
(S'\x07\xe3\x04\x12\x11\x1d\x10\x0f\x05d'
p88
tp89
Rp90
sg13
I0
sg14
S'card_brouillon'
p91
sg16
g67
sba(icardclass
Card
p92
(dp93
g3
S'Carton de colis'
p94
sg5
S'Compost'
p95
sg7
I01
sg8
g9
(S'\x07\xe3\x04\x12\x11\x1d\x1d\n\xdfx'
p96
tp97
Rp98
sg13
I0
sg14
S'card_carton'
p99
sg16
g67
sba(icardclass
Card
p100
(dp101
g3
S'Sali\xc3\xa8re vide'
p102
sg5
S'Recyclage'
p103
sg7
I01
sg8
g9
(S'\x07\xe3\x04\x12\x11\x1d2\x00`\x97'
p104
tp105
Rp106
sg13
I0
sg14
S'card_sel'
p107
sg16
g67
sba(icardclass
Card
p108
(dp109
g3
S"Ecorces d'orange"
p110
sg5
S'Ordures m\xc3\xa9nag\xc3\xa8res'
p111
sg7
I01
sg8
g9
(S'\x07\xe3\x04\x12\x11$\x1e\x06;\xc7'
p112
tp113
Rp114
sg13
I0
sg14
S'card_orange'
p115
sg16
g67
sba(icardclass
Card
p116
(dp117
g3
S'Ecorces de citron'
p118
sg5
S'Ordures m\xc3\xa9nag\xc3\xa8res'
p119
sg7
I01
sg8
g9
(S'\x07\xe3\x04\x12\x11$6\x02\x95\x83'
p120
tp121
Rp122
sg13
I0
sg14
S'card_citron'
p123
sg16
g67
sba(icardclass
Card
p124
(dp125
g3
S'Peau de pamplemousse'
p126
sg5
S'Ordures m\xc3\xa9nag\xc3\xa8res'
p127
sg7
I01
sg8
g9
(S'\x07\xe3\x04\x12\x11%\x10\t\xc0\xd2'
p128
tp129
Rp130
sg13
I0
sg14
S'card_pamplemousse'
p131
sg16
g67
sba(icardclass
Card
p132
(dp133
g3
S'Trognon de pomme'
p134
sg5
S'Compost'
p135
sg7
I01
sg8
g9
(S'\x07\xe3\x04\x12\x11%-\n\xe2x'
p136
tp137
Rp138
sg13
I0
sg14
S'card_pomme'
p139
sg16
g67
sba(icardclass
Card
p140
(dp141
g3
S'Brique de lait'
p142
sg5
S'Recyclage'
p143
sg7
I01
sg8
g9
(S'\x07\xe3\x04\x12\x11&;\x06>0'
p144
tp145
Rp146
sg13
I0
sg14
S'card_lait'
p147
sg16
g67
sba(icardclass
Card
p148
(dp149
g3
S"Aluminium d'une tablette de chocolat"
p150
sg5
S'Recyclage'
p151
sg7
I01
sg8
g9
(S'\x07\xe3\x04\x12\x11(,\tl\x0e'
p152
tp153
Rp154
sg13
I0
sg14
S'card_chocolat'
p155
sg16
g67
sba.