(lp0
(icardclass
Card
p1
(dp2
S'topside'
p3
S"Bouteille d'eau"
p4
sS'backside'
p5
S'Recyclage'
p6
sS'review'
p7
I00
sS'date'
p8
cdatetime
datetime
p9
(S'\x07\xe3\x04\x10\x1187\x03\x93\xad'
p10
tp11
Rp12
sS'position'
p13
I1
sS'identifier'
p14
S'card_bouteille_eau'
p15
sS'subject'
p16
S'Waste'
p17
sba(icardclass
Card
p18
(dp19
g3
S'Pomme de terre'
p20
sg5
S'Compost'
p21
sg7
I00
sg8
g12
sg13
I1
sg14
S'card_patate'
p22
sg16
g17
sba(icardclass
Card
p23
(dp24
g3
S'Bouteille de Vin'
p25
sg5
S'Verre'
p26
sg7
I00
sg8
g12
sg13
I1
sg14
S'card_bouteille_vin'
p27
sg16
g17
sba(icardclass
Card
p28
(dp29
g3
S'Bouchon de bouteille'
p30
sg5
S'Bouchon'
p31
sg7
I00
sg8
g12
sg13
I0
sg14
S'card_bouchon'
p32
sg16
g17
sba(icardclass
Card
p33
(dp34
g3
S'Epluchures de carottes'
p35
sg5
S'Compost'
p36
sg7
I00
sg8
g12
sg13
I0
sg14
S'card_epluchure'
p37
sg16
S'Waste'
p38
sba(icardclass
Card
p39
(dp40
g3
S"Rognures d'ongles"
p41
sg5
S'Ordures m\xc3\xa9nag\xc3\xa8res'
p42
sg7
I00
sg8
g12
sg13
I1
sg14
S'card_rognures'
p43
sg16
g38
sba(icardclass
Card
p44
(dp45
g3
S'Os de poulet'
p46
sg5
S'Ordures m\xc3\xa9nag\xc3\xa8res'
p47
sg7
I00
sg8
g12
sg13
I0
sg14
S'card_viande'
p48
sg16
g38
sba(icardclass
Card
p49
(dp50
g3
S'M\xc3\xa9got de cigarette'
p51
sg5
S'Cendrier'
p52
sg7
I00
sg8
g12
sg13
I0
sg14
S'card_megot'
p53
sg16
g38
sba(icardclass
Card
p54
(dp55
g3
S'Paquet de p\xc3\xa2tes vide'
p56
sg5
S'Recyclage'
p57
sg7
I00
sg8
g12
sg13
I0
sg14
S'card_paquet'
p58
sg16
g38
sba.