(lp0
(icard_class
Card
p1
(dp2
S'topside'
p3
S"Bouteille d'eau"
p4
sS'backside'
p5
S'R'
p6
sS'review'
p7
I01
sS'date'
p8
cdatetime
datetime
p9
(S'\x07\xe3\x05\x07\x0f2\x1e\x0e\x94\xc4'
p10
tp11
Rp12
sS'position'
p13
I3
sS'identifier'
p14
S'card_bouteille_eau'
p15
sS'subject'
p16
S'Waste'
p17
sba(icard_class
Card
p18
(dp19
g3
S'Epluchures de pomme de terre'
p20
sg5
S'C'
p21
sg7
I01
sg8
g9
(S'\x07\xe3\x04\x17\x0f\r\x14\x0b5h'
p22
tp23
Rp24
sg13
I0
sg14
S'card_patate'
p25
sS'edited_attribute'
p26
S'Epluchures de pomme de terre'
p27
sg16
g17
sba(icard_class
Card
p28
(dp29
g3
S'Bouteille de Vin'
p30
sg5
S'V'
p31
sg7
I01
sg8
g24
sg13
I2
sg14
S'card_bouteille_vin'
p32
sg16
g17
sba(icard_class
Card
p33
(dp34
g3
S'Bouchon de bouteille'
p35
sg5
S'B'
p36
sg7
I01
sg8
g9
(S'\x07\xe3\x05\x07\x0f:,\x03;\xa9'
p37
tp38
Rp39
sg13
I2
sg14
S'card_bouchon'
p40
sg16
g17
sba(icard_class
Card
p41
(dp42
g3
S'Epluchures de carottes'
p43
sg5
g21
sg7
I00
sg8
g9
(S'\x07\xe3\x05\x14\x10"5\r\x04t'
p44
tp45
Rp46
sg13
I2
sg14
S'card_epluchure'
p47
sg16
S'Waste'
p48
sba(icard_class
Card
p49
(dp50
g3
S"Rognures d'ongles"
p51
sg5
S'O'
p52
sg7
I00
sg8
g46
sg13
I3
sg14
S'card_rognures'
p53
sg16
g48
sba(icard_class
Card
p54
(dp55
g3
S'Os de poulet'
p56
sg5
g52
sg7
I01
sg8
g24
sg13
I0
sg14
S'card_os'
p57
sg16
g48
sba(icard_class
Card
p58
(dp59
g3
S'M\xc3\xa9got de cigarette'
p60
sg5
S'M'
p61
sg7
I01
sg8
g9
(S'\x07\xe3\x05\x07\x0f5#\t`\xa4'
p62
tp63
Rp64
sg13
I0
sg14
S'card_megot'
p65
sg16
g48
sba(icard_class
Card
p66
(dp67
g3
S'Paquet de p\xc3\xa2tes vide'
p68
sg5
g6
sg7
I01
sg8
g24
sg13
I1
sg14
S'card_paquet'
p69
sg16
g48
sba(icard_class
Card
p70
(dp71
g3
S'Piles us\xc3\xa9es'
p72
sg5
S'P'
p73
sg7
I01
sg8
g9
(S'\x07\xe3\x05\x07\x0f;2\x05.J'
p74
tp75
Rp76
sg13
I2
sg14
S'card_piles'
p77
sg16
S'Waste'
p78
sba(icard_class
Card
p79
(dp80
g3
S'CDrom ray\xc3\xa9'
p81
sg5
S'E'
p82
sg7
I01
sg8
g24
sg13
I1
sg14
S'card_CD'
p83
sg16
g78
sba(icard_class
Card
p84
(dp85
g3
S'Emballage de gateaux'
p86
sg5
g6
sg7
I01
sg8
g24
sg13
I1
sg14
S'card_paquet_gateau'
p87
sg16
g78
sba(icard_class
Card
p88
(dp89
g3
S'Brouillon utilis\xc3\xa9 recto-verso'
p90
sg5
g6
sg7
I01
sg8
g24
sg13
I0
sg14
S'card_brouillon'
p91
sg16
g78
sba(icard_class
Card
p92
(dp93
g3
S'Carton de colis'
p94
sg5
g21
sg7
I01
sg8
g24
sg13
I0
sg14
S'card_carton'
p95
sg16
g78
sba(icard_class
Card
p96
(dp97
g3
S'Sali\xc3\xa8re Cerebos vide'
p98
sg5
S'R'
p99
sg7
I01
sg8
g24
sg13
I1
sg14
S'card_sel'
p100
sg16
g78
sba(icard_class
Card
p101
(dp102
g3
S"Ecorces d'orange"
p103
sg5
S'O'
p104
sg7
I01
sg8
g24
sg13
I0
sg14
S'card_orange'
p105
sg16
g78
sba(icard_class
Card
p106
(dp107
g3
S'Ecorces de citron'
p108
sg5
g104
sg7
I01
sg8
g24
sg13
I0
sg14
S'card_citron'
p109
sg16
g78
sba(icard_class
Card
p110
(dp111
g3
S'Peau de pamplemousse'
p112
sg5
g104
sg7
I01
sg8
g39
sg13
I0
sg14
S'card_pamplemousse'
p113
sg16
g78
sba(icard_class
Card
p114
(dp115
g3
S'Trognon de pomme'
p116
sg5
S'C'
p117
sg7
I01
sg8
g9
(S'\x07\xe3\x05\x07\x11/1\x03\xb8\x85'
p118
tp119
Rp120
sg13
I0
sg14
S'card_pomme'
p121
sg16
g78
sba(icard_class
Card
p122
(dp123
g3
S'Brique de lait'
p124
sg5
g99
sg7
I01
sg8
g64
sg13
I2
sg14
S'card_lait'
p125
sg16
g78
sba(icard_class
Card
p126
(dp127
g3
S"Aluminium d'une tablette de chocolat"
p128
sg5
g99
sg7
I01
sg8
g46
sg13
I0
sg14
S'card_chocolat'
p129
sg16
g78
sba(icard_class
Card
p130
(dp131
g3
S'Assiette cass\xc3\xa9e'
p132
sg5
g104
sg7
I01
sg8
g9
(S'\x07\xe3\x04\x17\x0f(5\x01r\xbd'
p133
tp134
Rp135
sg13
I0
sg14
S'card_assiette'
p136
sg16
S'Waste'
p137
sba(icard_class
Card
p138
(dp139
g3
S'Conserve de flageolets'
p140
sg5
g99
sg7
I01
sg8
g9
(S'\x07\xe3\x04\x17\x0f)\x1b\x07\xeat'
p141
tp142
Rp143
sg13
I0
sg14
S'card_flageolet'
p144
sg16
g137
sba(icard_class
Card
p145
(dp146
g3
S'Conserve de concentr\xc3\xa9 de tomate'
p147
sg5
g99
sg7
I01
sg8
g9
(S'\x07\xe3\x04\x17\x0f);\x08!0'
p148
tp149
Rp150
sg13
I0
sg14
S'card_tomato_concentre'
p151
sg16
g137
sba(icard_class
Card
p152
(dp153
g3
S'Pot de sauce tomate'
p154
sg5
S'V'
p155
sg7
I01
sg8
g120
sg13
I1
sg14
S'card_sauce_tomate'
p156
sg16
g137
sba(icard_class
Card
p157
(dp158
g3
S'Pot de pesto'
p159
sg5
g155
sg7
I01
sg8
g9
(S'\x07\xe3\x04\x17\x0f*)\r\xbe9'
p160
tp161
Rp162
sg13
I0
sg14
S'card_pesto'
p163
sg16
g137
sba(icard_class
Card
p164
(dp165
g3
S'Feuilles mortes'
p166
sg5
g117
sg7
I00
sg8
g9
(S'\x07\xe3\x05\x16\n#\x06\x07-7'
p167
tp168
Rp169
sg13
I1
sg14
S'card_feuilles'
p170
sg16
g137
sba(icard_class
Card
p171
(dp172
g3
S'Bouteille de vinaigre'
p173
sg5
g155
sg7
I01
sg8
g9
(S'\x07\xe3\x04\x17\x0f+\x18\x07.\x15'
p174
tp175
Rp176
sg13
I0
sg14
S'card_vinaigre'
p177
sg16
g137
sba(icard_class
Card
p178
(dp179
g3
S'Bouteille de Corona'
p180
sg5
g155
sg7
I01
sg8
g46
sg13
I0
sg14
S'card_biere'
p181
sg16
g137
sba(icard_class
Card
p182
(dp183
g3
S'Sachet de baguette'
p184
sg5
g117
sg7
I01
sg8
g46
sg13
I0
sg14
S'card_sachet_pain'
p185
sg16
g137
sba(icard_class
Card
p186
(dp187
g3
S"Vieux four de l'anim"
p188
sg5
S'E'
p189
sg7
I01
sg8
g46
sg13
I0
sg14
S'card_four'
p190
sg16
S'Waste'
p191
sba(icard_class
Card
p192
(dp193
g3
S'Neon'
p194
sg5
S'A'
p195
sg7
I01
sg8
g9
(S'\x07\xe3\x04\x17\x0f6\x04\x07\xe5u'
p196
tp197
Rp198
sg13
I0
sg14
S'card_neon'
p199
sg16
g191
sba(icard_class
Card
p200
(dp201
g3
S'Ampoule'
p202
sg5
g195
sg7
I01
sg8
g39
sg13
I0
sg14
S'card_ampoule'
p203
sg16
g191
sba(icard_class
Card
p204
(dp205
g3
S'Vieux jean'
p206
sg5
S'T'
p207
sg7
I01
sg8
g9
(S'\x07\xe3\x04\x17\x10\x06\n\x05\x16\n'
p208
tp209
Rp210
sg13
I0
sg14
S'card_jean'
p211
sg16
S'Waste'
p212
sba(icard_class
Card
p213
(dp214
g3
S'Vieilles chaussures'
p215
sg5
g207
sg7
I01
sg8
g120
sg13
I1
sg14
S'card_chaussure'
p216
sg16
g212
sba(icard_class
Card
p217
(dp218
g3
S'Vieux bonnet'
p219
sg5
g207
sg7
I01
sg8
g76
sg13
I0
sg14
S'card_bonnet'
p220
sg16
g212
sba(icard_class
Card
p221
(dp222
g3
S'Chaussettes trou\xc3\xa9es'
p223
sg5
S'Ordures m\xc3\xa9nag\xc3\xa8res'
p224
sg7
I01
sg8
g9
(S'\x07\xe3\x04\x17\x10\x074\x08\x05\x13'
p225
tp226
Rp227
sg13
I0
sg14
S'crad_chaussette'
p228
sg16
g212
sba(icard_class
Card
p229
(dp230
g3
S'Vieux collants fil\xc3\xa9s'
p231
sg5
S'O'
p232
sg7
I01
sg8
g9
(S'\x07\xe3\x04\x17\x10\x08\r\x03\x80\xa2'
p233
tp234
Rp235
sg13
I0
sg14
S'card_collant'
p236
sg16
g212
sba(icard_class
Card
p237
(dp238
g3
S'Cotons d\xc3\xa9maquillants'
p239
sg5
g232
sg7
I01
sg8
g9
(S'\x07\xe3\x04\x17\x10\t\t\x08b\xcb'
p240
tp241
Rp242
sg13
I0
sg14
S'card_coton'
p243
sg16
g212
sba(icard_class
Card
p244
(dp245
g3
S'Bouteille de shampoing'
p246
sg5
S'R'
p247
sg7
I01
sg8
g12
sg13
I0
sg14
S'card_shampoing'
p248
sg16
g212
sba(icard_class
Card
p249
(dp250
g3
S'Carton de papier toilette ou de sopalin'
p251
sg5
S'C'
p252
sg7
I01
sg8
g9
(S'\x07\xe3\x04\x17\x10\n\x1c\x07h\xc8'
p253
tp254
Rp255
sg13
I0
sg14
S'card_pq'
p256
sg16
g212
sba(icard_class
Card
p257
(dp258
g3
S'Mouchoires en papier'
p259
sg5
g252
sg7
I01
sg8
g64
sg13
I0
sg14
S'card_mouchoire'
p260
sg16
g212
sba(icard_class
Card
p261
(dp262
g3
S'Essuie-tout'
p263
sg5
g252
sg7
I01
sg8
g9
(S'\x07\xe3\x04\x17\x10\x0b\t\t\xf96'
p264
tp265
Rp266
sg13
I0
sg14
S'card_sopalin'
p267
sg16
g212
sba(icard_class
Card
p268
(dp269
g3
S'Brique de jus de fruit'
p270
sg5
g247
sg7
I01
sg8
g9
(S'\x07\xe3\x05\x14\x11*.\x02\xaf\x87'
p271
tp272
Rp273
sg13
I0
sg14
S'card_brique'
p274
sg16
S'Waste'
p275
sba(icard_class
Card
p276
(dp277
g3
S'Gourde de compote'
p278
sg5
g247
sg7
I01
sg8
g9
(S'\x07\xe3\x05\x14\x11+\n\x0c\xed\x10'
p279
tp280
Rp281
sg13
I0
sg14
S'card_pompote'
p282
sg16
g275
sba(icard_class
Card
p283
(dp284
g3
S'Gourde de Caprisun'
p285
sg5
g247
sg7
I01
sg8
g9
(S'\x07\xe3\x05\x14\x11+\x1e\x01\xb30'
p286
tp287
Rp288
sg13
I0
sg14
S'card_caprisun'
p289
sg16
g275
sba(icard_class
Card
p290
(dp291
g3
S'Vieux telephone'
p292
sg5
S'E'
p293
sg7
I01
sg8
g9
(S'\x07\xe3\x05\x14\x11+5\n\xde\x82'
p294
tp295
Rp296
sg13
I0
sg14
S'card_telephone'
p297
sg16
g275
sba(icard_class
Card
p298
(dp299
g3
S'Pot de confiture vide'
p300
sg5
S'V'
p301
sg7
I01
sg8
g9
(S'\x07\xe3\x05\x14\x11,\x16\x06:\x9a'
p302
tp303
Rp304
sg13
I0
sg14
S'card_confiture'
p305
sg16
g275
sba(icard_class
Card
p306
(dp307
g3
S'Pot de miel vide'
p308
sg5
g301
sg7
I01
sg8
g9
(S'\x07\xe3\x05\x14\x11,"\x01T\xfc'
p309
tp310
Rp311
sg13
I0
sg14
S'card_miel'
p312
sg16
g275
sba(icard_class
Card
p313
(dp314
g3
S'Flacon de ketchup/mayo/moutarde vide'
p315
sg5
g247
sg7
I01
sg8
g9
(S'\x07\xe3\x05\x14\x11,9\x06\xaeX'
p316
tp317
Rp318
sg13
I0
sg14
S'card_ketchup'
p319
sg16
g275
sba(icard_class
Card
p320
(dp321
g3
S"Flacon de produit d'entretien vide"
p322
sg5
g247
sg7
I00
sg8
g9
(S'\x07\xe3\x05\x16\n",\x01\x8fm'
p323
tp324
Rp325
sg13
I1
sg14
S'card_entretien'
p326
sg16
g275
sba(icard_class
Card
p327
(dp328
g3
S'Draps us\xc3\xa9s'
p329
sg5
g207
sg7
I01
sg8
g9
(S'\x07\xe3\x05\x14\x11-,\n\xbd\xf1'
p330
tp331
Rp332
sg13
I0
sg14
S'card_drap'
p333
sg16
g275
sba(icard_class
Card
p334
(dp335
g3
S'Tube de dentifrice'
p336
sg5
g247
sg7
I01
sg8
g9
(S'\x07\xe3\x05\x14\x11-9\x08.\x08'
p337
tp338
Rp339
sg13
I0
sg14
S'card_dentifrice'
p340
sg16
g275
sba(icard_class
Card
p341
(dp342
g3
S'Brosse \xc3\xa0 dents us\xc3\xa9e'
p343
sg5
g247
sg7
I01
sg8
g9
(S'\x07\xe3\x05\x14\x11.\x10\x06z\x9d'
p344
tp345
Rp346
sg13
I0
sg14
S'card_brosse_dents'
p347
sg16
g275
sba(icard_class
Card
p348
(dp349
g3
S'Bouquet fan\xc3\xa9'
p350
sg5
g252
sg7
I01
sg8
g9
(S'\x07\xe3\x05\x14\x11.&\x0b\xd8H'
p351
tp352
Rp353
sg13
I0
sg14
S'card_bouquet'
p354
sg16
g275
sba(icard_class
Card
p355
(dp356
g3
S'Nappe trou\xc3\xa9e'
p357
sg5
g207
sg7
I01
sg8
g9
(S'\x07\xe3\x05\x14\x11.3\x04\xc4\xf9'
p358
tp359
Rp360
sg13
I0
sg14
S'card_nappe'
p361
sg16
g275
sba(icard_class
Card
p362
(dp363
g3
S'Vieux T_Shirt '
p364
sg5
g207
sg7
I00
sg8
g9
(S'\x07\xe3\x05\x16\n#\x00\x06\xfb}'
p365
tp366
Rp367
sg13
I0
sg14
S'card_tshirt'
p368
sg16
g275
sba(icard_class
Card
p369
(dp370
g3
S'Vieux pull'
p371
sg5
g207
sg7
I01
sg8
g9
(S'\x07\xe3\x05\x14\x11/\x18\x01\xb5}'
p372
tp373
Rp374
sg13
I0
sg14
S'card_pull'
p375
sg16
g275
sba(icard_class
Card
p376
(dp377
g3
S'Vieilles sandales'
p378
sg5
g207
sg7
I01
sg8
g9
(S'\x07\xe3\x05\x14\x11/(\x08\xcbh'
p379
tp380
Rp381
sg13
I0
sg14
S'card_sandales'
p382
sg16
g275
sba(icard_class
Card
p383
(dp384
g3
S'Vieilles tongs'
p385
sg5
g207
sg7
I01
sg8
g9
(S'\x07\xe3\x05\x14\x11/4\x0f=\xf4'
p386
tp387
Rp388
sg13
I0
sg14
S'card_tongs'
p389
sg16
g275
sba(icard_class
Card
p390
(dp391
g3
S'Croutes de fromage'
p392
sg5
g232
sg7
I01
sg8
g9
(S'\x07\xe3\x05\x14\x110\x07\x02j\xb7'
p393
tp394
Rp395
sg13
I0
sg14
S'card_fromage'
p396
sg16
g275
sba(icard_class
Card
p397
(dp398
g3
S'Mauvais morceaux de viande'
p399
sg5
g232
sg7
I01
sg8
g9
(S'\x07\xe3\x05\x14\x110(\n\xc0}'
p400
tp401
Rp402
sg13
I0
sg14
S'card_viande'
p403
sg16
g275
sba(icard_class
Card
p404
(dp405
g3
S"Coquilles d'oeufs"
p406
sg5
g252
sg7
I01
sg8
g9
(S'\x07\xe3\x05\x14\x111\n\r\xec\x90'
p407
tp408
Rp409
sg13
I0
sg14
S'card_oeuf'
p410
sg16
g275
sba(icard_class
Card
p411
(dp412
g3
S'Peau de melon ou de pasteque'
p413
sg5
g252
sg7
I01
sg8
g9
(S'\x07\xe3\x05\x14\x111(\x0e\n\x9b'
p414
tp415
Rp416
sg13
I0
sg14
S'card_peau_melon'
p417
sg16
g275
sba(icard_class
Card
p418
(dp419
g3
S'Peau de kiwi'
p420
sg5
g252
sg7
I01
sg8
g9
(S'\x07\xe3\x05\x14\x1117\x02\x93\xe6'
p421
tp422
Rp423
sg13
I0
sg14
S'card_peau_kiwi'
p424
sg16
g275
sba(icard_class
Card
p425
(dp426
g3
S'Couenne de jambon'
p427
sg5
g232
sg7
I01
sg8
g9
(S'\x07\xe3\x05\x14\x112\t\n\xe1"'
p428
tp429
Rp430
sg13
I0
sg14
S'card_couenne'
p431
sg16
g275
sba(icard_class
Card
p432
(dp433
g3
S"Queues d'haricots"
p434
sg5
g252
sg7
I01
sg8
g9
(S'\x07\xe3\x05\x14\x112\x1f\nE|'
p435
tp436
Rp437
sg13
I0
sg14
S'card_queue_legume'
p438
sg16
g275
sba(icard_class
Card
p439
(dp440
g3
S'Eponge us\xc3\xa9e'
p441
sg5
g232
sg7
I01
sg8
g9
(S'\x07\xe3\x05\x14\x112,\x03\x07]'
p442
tp443
Rp444
sg13
I0
sg14
S'card_eponge'
p445
sg16
g275
sba(icard_class
Card
p446
(dp447
g3
S'Serpillere us\xc3\xa9e'
p448
sg5
g232
sg7
I01
sg8
g9
(S'\x07\xe3\x05\x14\x113\x01\x0f\x06\x9a'
p449
tp450
Rp451
sg13
I0
sg14
S'card_serpillere'
p452
sg16
g275
sba(icard_class
Card
p453
(dp454
g3
S'Stylo bic'
p455
sg5
g247
sg7
I01
sg8
g9
(S"\x07\xe3\x05\x14\x113\x1b\x04'\xa8"
p456
tp457
Rp458
sg13
I0
sg14
S'card_stylo'
p459
sg16
g275
sba(icard_class
Card
p460
(dp461
g3
S'Crayon de papier'
p462
sg5
g252
sg7
I01
sg8
g9
(S'\x07\xe3\x05\x14\x113&\x05\xde\xed'
p463
tp464
Rp465
sg13
I0
sg14
S'card_crayon'
p466
sg16
g275
sba(icard_class
Card
p467
(dp468
g3
S'Epluchures de gomme'
p469
sg5
g232
sg7
I01
sg8
g9
(S'\x07\xe3\x05\x14\x114\t\x0b\x01D'
p470
tp471
Rp472
sg13
I0
sg14
S'card_gomme'
p473
sg16
g275
sba(icard_class
Card
p474
(dp475
g3
S'Regle gradu\xc3\xa9e'
p476
sg5
g247
sg7
I01
sg8
g9
(S'\x07\xe3\x05\x14\x114\x17\x0e+\xed'
p477
tp478
Rp479
sg13
I0
sg14
S'card_regle'
p480
sg16
g275
sba(icard_class
Card
p481
(dp482
g3
S'Serviette hygienique'
p483
sg5
g232
sg7
I01
sg8
g9
(S'\x07\xe3\x05\x14\x114)\x0c\x97\xd2'
p484
tp485
Rp486
sg13
I0
sg14
S'card_serviette_hygienique'
p487
sg16
g275
sba(icard_class
Card
p488
(dp489
g3
S'Tampon usag\xc3\xa9'
p490
sg5
g232
sg7
I01
sg8
g9
(S'\x07\xe3\x05\x14\x1148\x02\xcb`'
p491
tp492
Rp493
sg13
I0
sg14
S'card_tampon'
p494
sg16
g275
sba(icard_class
Card
p495
(dp496
g3
S'Fruit pourri'
p497
sg5
g252
sg7
I01
sg8
g9
(S'\x07\xe3\x05\x14\x115\x07\x02s\xa5'
p498
tp499
Rp500
sg13
I0
sg14
S'card_fruit'
p501
sg16
g275
sba(icard_class
Card
p502
(dp503
g3
S'Legume rassi'
p504
sg5
g252
sg7
I01
sg8
g9
(S'\x07\xe3\x05\x14\x115\x12\t\x0c\x81'
p505
tp506
Rp507
sg13
I0
sg14
S'card_legume'
p508
sg16
g275
sba(icard_class
Card
p509
(dp510
g3
S'The et sachet de the'
p511
sg5
g252
sg7
I01
sg8
g9
(S'\x07\xe3\x05\x14\x115#\n\x00\x19'
p512
tp513
Rp514
sg13
I0
sg14
S'card_the'
p515
sg16
g275
sba(icard_class
Card
p516
(dp517
g3
S'Marc de cafe'
p518
sg5
g252
sg7
I01
sg8
g9
(S'\x07\xe3\x05\x14\x115.\x08\x12&'
p519
tp520
Rp521
sg13
I0
sg14
S'card_cafe'
p522
sg16
g275
sba(icard_class
Card
p523
(dp524
g3
S'Paille de boisson'
p525
sg5
g247
sg7
I01
sg8
g9
(S'\x07\xe3\x05\x14\x116\x06\t\xe9<'
p526
tp527
Rp528
sg13
I0
sg14
S'card_paille'
p529
sg16
g275
sba(icard_class
Card
p530
(dp531
g3
S'Gobelet de la cafeteria'
p532
sg5
g247
sg7
I01
sg8
g9
(S'\x07\xe3\x05\x14\x116\x14\r\x92\xce'
p533
tp534
Rp535
sg13
I0
sg14
S'card_gobelet'
p536
sg16
g275
sba(icard_class
Card
p537
(dp538
g3
S'Pot de yaourt en plastique'
p539
sg5
g247
sg7
I01
sg8
g9
(S"\x07\xe3\x05\x14\x116'\x08\n\xe9"
p540
tp541
Rp542
sg13
I0
sg14
S'card_yaourt'
p543
sg16
g275
sba(icard_class
Card
p544
(dp545
g3
S"Boite d'oeufs"
p546
sg5
g252
sg7
I01
sg8
g9
(S'\x07\xe3\x05\x14\x1165\x06T\xe9'
p547
tp548
Rp549
sg13
I0
sg14
S'card_boite_oeuf'
p550
sg16
g275
sba(icard_class
Card
p551
(dp552
g3
S'Restant de cigare'
p553
sg5
S'M'
p554
sg7
I01
sg8
g9
(S'\x07\xe3\x05\x14\x117\x08\x02wR'
p555
tp556
Rp557
sg13
I0
sg14
S'card_cigare'
p558
sg16
g275
sba(icard_class
Card
p559
(dp560
g3
S'Alumette usag\xc3\xa9e'
p561
sg5
g252
sg7
I01
sg8
g9
(S'\x07\xe3\x05\x14\x117\x18\x0bx\xb6'
p562
tp563
Rp564
sg13
I0
sg14
S'card_alumette'
p565
sg16
g275
sba(icard_class
Card
p566
(dp567
g3
S'Couverts en plastique'
p568
sg5
g247
sg7
I01
sg8
g9
(S'\x07\xe3\x05\x14\x117*\rL\xbd'
p569
tp570
Rp571
sg13
I0
sg14
S'card_couverts'
p572
sg16
g275
sba(icard_class
Card
p573
(dp574
g3
S'Assiettes \xc3\xa0 usage unique'
p575
sg5
g247
sg7
I01
sg8
g9
(S'\x07\xe3\x05\x14\x118\x01\x04\xc5['
p576
tp577
Rp578
sg13
I0
sg14
S'card_assiette_carton'
p579
sg16
g275
sba(icard_class
Card
p580
(dp581
g3
S'Pot de creme en plastique'
p582
sg5
g247
sg7
I01
sg8
g9
(S'\x07\xe3\x05\x14\x118\x11\x03j\xf0'
p583
tp584
Rp585
sg13
I0
sg14
S'card_creme'
p586
sg16
g275
sba(icard_class
Card
p587
(dp588
g3
S'Cahier'
p589
sg5
g247
sg7
I01
sg8
g9
(S'\x07\xe3\x05\x14\x118\x1e\n\x9dR'
p590
tp591
Rp592
sg13
I0
sg14
S'card_cahier'
p593
sg16
g275
sba.
