(lp0
(icardclass
Card
p1
(dp2
S'topside'
p3
S"Bouteille d'eau"
p4
sS'backside'
p5
S'Recyclage'
p6
sS'review'
p7
I00
sS'date'
p8
cdatetime
datetime
p9
(S'\x07\xe3\x04\x17\x0f\r\x14\x0b5h'
p10
tp11
Rp12
sS'position'
p13
I2
sS'identifier'
p14
S'card_bouteille_eau'
p15
sS'subject'
p16
S'Waste'
p17
sba(icardclass
Card
p18
(dp19
g3
S'Pomme de terre'
p20
sg5
S'Compost'
p21
sg7
I00
sg8
g12
sg13
I0
sg14
S'card_patate'
p22
sg16
g17
sba(icardclass
Card
p23
(dp24
g3
S'Bouteille de Vin'
p25
sg5
S'Verre'
p26
sg7
I00
sg8
g12
sg13
I2
sg14
S'card_bouteille_vin'
p27
sg16
g17
sba(icardclass
Card
p28
(dp29
g3
S'Bouchon de bouteille'
p30
sg5
S'Bouchon'
p31
sg7
I00
sg8
g12
sg13
I1
sg14
S'card_bouchon'
p32
sg16
g17
sba(icardclass
Card
p33
(dp34
g3
S'Epluchures de carottes'
p35
sg5
S'Compost'
p36
sg7
I00
sg8
g12
sg13
I1
sg14
S'card_epluchure'
p37
sg16
S'Waste'
p38
sba(icardclass
Card
p39
(dp40
g3
S"Rognures d'ongles"
p41
sg5
S'Ordures m\xc3\xa9nag\xc3\xa8res'
p42
sg7
I00
sg8
g12
sg13
I2
sg14
S'card_rognures'
p43
sg16
g38
sba(icardclass
Card
p44
(dp45
g3
S'Os de poulet'
p46
sg5
S'Ordures m\xc3\xa9nag\xc3\xa8res'
p47
sg7
I00
sg8
g12
sg13
I0
sg14
S'card_viande'
p48
sg16
g38
sba(icardclass
Card
p49
(dp50
g3
S'M\xc3\xa9got de cigarette'
p51
sg5
S'Cendrier'
p52
sg7
I00
sg8
g12
sg13
I1
sg14
S'card_megot'
p53
sg16
g38
sba(icardclass
Card
p54
(dp55
g3
S'Paquet de p\xc3\xa2tes vide'
p56
sg5
S'Recyclage'
p57
sg7
I00
sg8
g12
sg13
I1
sg14
S'card_paquet'
p58
sg16
g38
sba(icardclass
Card
p59
(dp60
g3
S'Piles us\xc3\xa9es'
p61
sg5
S'Piles'
p62
sg7
I00
sg8
g12
sg13
I1
sg14
S'card_piles'
p63
sg16
S'Waste'
p64
sba(icardclass
Card
p65
(dp66
g3
S'CDrom ray\xc3\xa9'
p67
sg5
S'Electronique'
p68
sg7
I00
sg8
g12
sg13
I1
sg14
S'card_CD'
p69
sg16
g64
sba(icardclass
Card
p70
(dp71
g3
S'Emballage de gateaux'
p72
sg5
S'Recyclage'
p73
sg7
I00
sg8
g12
sg13
I1
sg14
S'card_paquet_gateau'
p74
sg16
g64
sba(icardclass
Card
p75
(dp76
g3
S'Brouillon utilis\xc3\xa9 recto-verso'
p77
sg5
S'Recyclage'
p78
sg7
I00
sg8
g12
sg13
I0
sg14
S'card_brouillon'
p79
sg16
g64
sba(icardclass
Card
p80
(dp81
g3
S'Carton de colis'
p82
sg5
S'Compost'
p83
sg7
I00
sg8
g12
sg13
I0
sg14
S'card_carton'
p84
sg16
g64
sba(icardclass
Card
p85
(dp86
g3
S'Sali\xc3\xa8re vide'
p87
sg5
S'Recyclage'
p88
sg7
I00
sg8
g12
sg13
I1
sg14
S'card_sel'
p89
sg16
g64
sba(icardclass
Card
p90
(dp91
g3
S"Ecorces d'orange"
p92
sg5
S'Ordures m\xc3\xa9nag\xc3\xa8res'
p93
sg7
I00
sg8
g12
sg13
I0
sg14
S'card_orange'
p94
sg16
g64
sba(icardclass
Card
p95
(dp96
g3
S'Ecorces de citron'
p97
sg5
S'Ordures m\xc3\xa9nag\xc3\xa8res'
p98
sg7
I00
sg8
g12
sg13
I0
sg14
S'card_citron'
p99
sg16
g64
sba(icardclass
Card
p100
(dp101
g3
S'Peau de pamplemousse'
p102
sg5
S'Ordures m\xc3\xa9nag\xc3\xa8res'
p103
sg7
I00
sg8
g12
sg13
I0
sg14
S'card_pamplemousse'
p104
sg16
g64
sba(icardclass
Card
p105
(dp106
g3
S'Trognon de pomme'
p107
sg5
S'Compost'
p108
sg7
I00
sg8
g12
sg13
I1
sg14
S'card_pomme'
p109
sg16
g64
sba(icardclass
Card
p110
(dp111
g3
S'Brique de lait'
p112
sg5
S'Recyclage'
p113
sg7
I00
sg8
g12
sg13
I1
sg14
S'card_lait'
p114
sg16
g64
sba(icardclass
Card
p115
(dp116
g3
S"Aluminium d'une tablette de chocolat"
p117
sg5
S'Recyclage'
p118
sg7
I00
sg8
g12
sg13
I1
sg14
S'card_chocolat'
p119
sg16
g64
sba.