(lp0
(icard_class
Card
p1
(dp2
S'topside'
p3
S"Bouteille d'eau"
p4
sS'backside'
p5
S'R'
p6
sS'review'
p7
I01
sS'date'
p8
cdatetime
datetime
p9
(S'\x07\xe3\x05\x07\x0f2\x1e\x0e\x94\xc4'
p10
tp11
Rp12
sS'position'
p13
I3
sS'identifier'
p14
S'card_bouteille_eau'
p15
sS'subject'
p16
S'Waste'
p17
sba(icard_class
Card
p18
(dp19
g3
S'Epluchures de pomme de terre'
p20
sg5
S'C'
p21
sg7
I01
sg8
g9
(S'\x07\xe3\x04\x17\x0f\r\x14\x0b5h'
p22
tp23
Rp24
sg13
I0
sg14
S'card_patate'
p25
sS'edited_attribute'
p26
S'Epluchures de pomme de terre'
p27
sg16
g17
sba(icard_class
Card
p28
(dp29
g3
S'Bouteille de Vin'
p30
sg5
S'V'
p31
sg7
I01
sg8
g9
(S'\x07\xe3\x05\x16\x11)-\x08dq'
p32
tp33
Rp34
sg13
I0
sg14
S'card_bouteille_vin'
p35
sg16
g17
sba(icard_class
Card
p36
(dp37
g3
S'Bouchon de bouteille'
p38
sg5
S'B'
p39
sg7
I00
sg8
g9
(S'\x07\xe3\x05\x16\x11\x1c7\r\xd5\xb3'
p40
tp41
Rp42
sg13
I3
sg14
S'card_bouchon'
p43
sg16
g17
sba(icard_class
Card
p44
(dp45
g3
S'Epluchures de carottes'
p46
sg5
g21
sg7
I00
sg8
g9
(S'\x07\xe3\x05\x14\x10"5\r\x04t'
p47
tp48
Rp49
sg13
I2
sg14
S'card_epluchure'
p50
sg16
S'Waste'
p51
sba(icard_class
Card
p52
(dp53
g3
S"Rognures d'ongles"
p54
sg5
S'O'
p55
sg7
I00
sg8
g49
sg13
I3
sg14
S'card_rognures'
p56
sg16
g51
sba(icard_class
Card
p57
(dp58
g3
S'Os de poulet'
p59
sg5
g55
sg7
I01
sg8
g24
sg13
I0
sg14
S'card_os'
p60
sg16
g51
sba(icard_class
Card
p61
(dp62
g3
S'M\xc3\xa9got de cigarette'
p63
sg5
S'M'
p64
sg7
I01
sg8
g9
(S'\x07\xe3\x05\x07\x0f5#\t`\xa4'
p65
tp66
Rp67
sg13
I0
sg14
S'card_megot'
p68
sg16
g51
sba(icard_class
Card
p69
(dp70
g3
S'Paquet de p\xc3\xa2tes vide'
p71
sg5
g6
sg7
I01
sg8
g24
sg13
I1
sg14
S'card_paquet'
p72
sg16
g51
sba(icard_class
Card
p73
(dp74
g3
S'Piles us\xc3\xa9es'
p75
sg5
S'P'
p76
sg7
I01
sg8
g9
(S'\x07\xe3\x05\x07\x0f;2\x05.J'
p77
tp78
Rp79
sg13
I2
sg14
S'card_piles'
p80
sg16
S'Waste'
p81
sba(icard_class
Card
p82
(dp83
g3
S'CDrom ray\xc3\xa9'
p84
sg5
S'E'
p85
sg7
I01
sg8
g24
sg13
I1
sg14
S'card_CD'
p86
sg16
g81
sba(icard_class
Card
p87
(dp88
g3
S'Emballage de gateaux'
p89
sg5
g6
sg7
I00
sg8
g9
(S'\x07\xe3\x05\x16\x113\x10\x08\x05\xa2'
p90
tp91
Rp92
sg13
I2
sg14
S'card_paquet_gateau'
p93
sg16
g81
sba(icard_class
Card
p94
(dp95
g3
S'Brouillon utilis\xc3\xa9 recto-verso'
p96
sg5
g6
sg7
I01
sg8
g24
sg13
I0
sg14
S'card_brouillon'
p97
sg16
g81
sba(icard_class
Card
p98
(dp99
g3
S'Carton de colis'
p100
sg5
g21
sg7
I00
sg8
g9
(S'\x07\xe3\x05\x16\x11/\x10\x06Q\x11'
p101
tp102
Rp103
sg13
I1
sg14
S'card_carton'
p104
sg16
g81
sba(icard_class
Card
p105
(dp106
g3
S'Sali\xc3\xa8re Cerebos vide'
p107
sg5
S'R'
p108
sg7
I01
sg8
g24
sg13
I1
sg14
S'card_sel'
p109
sg16
g81
sba(icard_class
Card
p110
(dp111
g3
S"Ecorces d'orange"
p112
sg5
S'O'
p113
sg7
I01
sg8
g9
(S'\x07\xe3\x05\x16\x11\x1c;\r~\x8b'
p114
tp115
Rp116
sg13
I0
sg14
S'card_orange'
p117
sg16
g81
sba(icard_class
Card
p118
(dp119
g3
S'Ecorces de citron'
p120
sg5
g113
sg7
I00
sg8
g9
(S'\x07\xe3\x05\x16\x0c\x1f\t\x04dP'
p121
tp122
Rp123
sg13
I1
sg14
S'card_citron'
p124
sg16
g81
sba(icard_class
Card
p125
(dp126
g3
S'Peau de pamplemousse'
p127
sg5
g113
sg7
I00
sg8
g9
(S'\x07\xe3\x05\x16\x113\n\x05\x02\xc9'
p128
tp129
Rp130
sg13
I1
sg14
S'card_pamplemousse'
p131
sg16
g81
sba(icard_class
Card
p132
(dp133
g3
S'Trognon de pomme'
p134
sg5
S'C'
p135
sg7
I01
sg8
g9
(S'\x07\xe3\x05\x16\x11-8\x03\xa2)'
p136
tp137
Rp138
sg13
I0
sg14
S'card_pomme'
p139
sg16
g81
sba(icard_class
Card
p140
(dp141
g3
S'Brique de lait'
p142
sg5
g108
sg7
I01
sg8
g67
sg13
I2
sg14
S'card_lait'
p143
sg16
g81
sba(icard_class
Card
p144
(dp145
g3
S"Aluminium d'une tablette de chocolat"
p146
sg5
g108
sg7
I00
sg8
g9
(S'\x07\xe3\x05\x16\x11  \n;\r'
p147
tp148
Rp149
sg13
I1
sg14
S'card_chocolat'
p150
sg16
g81
sba(icard_class
Card
p151
(dp152
g3
S'Assiette cass\xc3\xa9e'
p153
sg5
g113
sg7
I00
sg8
g9
(S'\x07\xe3\x05\x16\x11/\x15\x07r\xf3'
p154
tp155
Rp156
sg13
I1
sg14
S'card_assiette'
p157
sg16
S'Waste'
p158
sba(icard_class
Card
p159
(dp160
g3
S'Conserve de flageolets'
p161
sg5
g108
sg7
I01
sg8
g9
(S'\x07\xe3\x04\x17\x0f)\x1b\x07\xeat'
p162
tp163
Rp164
sg13
I0
sg14
S'card_flageolet'
p165
sg16
g158
sba(icard_class
Card
p166
(dp167
g3
S'Conserve de concentr\xc3\xa9 de tomate'
p168
sg5
g108
sg7
I01
sg8
g9
(S'\x07\xe3\x04\x17\x0f);\x08!0'
p169
tp170
Rp171
sg13
I0
sg14
S'card_tomato_concentre'
p172
sg16
g158
sba(icard_class
Card
p173
(dp174
g3
S'Pot de sauce tomate'
p175
sg5
S'V'
p176
sg7
I01
sg8
g9
(S'\x07\xe3\x05\x07\x11/1\x03\xb8\x85'
p177
tp178
Rp179
sg13
I1
sg14
S'card_sauce_tomate'
p180
sg16
g158
sba(icard_class
Card
p181
(dp182
g3
S'Pot de pesto'
p183
sg5
g176
sg7
I01
sg8
g9
(S'\x07\xe3\x04\x17\x0f*)\r\xbe9'
p184
tp185
Rp186
sg13
I0
sg14
S'card_pesto'
p187
sg16
g158
sba(icard_class
Card
p188
(dp189
g3
S'Feuilles mortes'
p190
sg5
g135
sg7
I00
sg8
g9
(S'\x07\xe3\x05\x16\n#\x06\x07-7'
p191
tp192
Rp193
sg13
I1
sg14
S'card_feuilles'
p194
sg16
g158
sba(icard_class
Card
p195
(dp196
g3
S'Bouteille de vinaigre'
p197
sg5
g176
sg7
I01
sg8
g9
(S'\x07\xe3\x04\x17\x0f+\x18\x07.\x15'
p198
tp199
Rp200
sg13
I0
sg14
S'card_vinaigre'
p201
sg16
g158
sba(icard_class
Card
p202
(dp203
g3
S'Bouteille de Corona'
p204
sg5
g176
sg7
I01
sg8
g9
(S'\x07\xe3\x05\x16\x11/ \t\x9b\xc9'
p205
tp206
Rp207
sg13
I0
sg14
S'card_biere'
p208
sg16
g158
sba(icard_class
Card
p209
(dp210
g3
S'Sachet de baguette'
p211
sg5
g135
sg7
I01
sg8
g49
sg13
I0
sg14
S'card_sachet_pain'
p212
sg16
g158
sba(icard_class
Card
p213
(dp214
g3
S"Vieux four de l'anim"
p215
sg5
S'E'
p216
sg7
I01
sg8
g49
sg13
I0
sg14
S'card_four'
p217
sg16
S'Waste'
p218
sba(icard_class
Card
p219
(dp220
g3
S'Neon'
p221
sg5
S'A'
p222
sg7
I01
sg8
g9
(S'\x07\xe3\x04\x17\x0f6\x04\x07\xe5u'
p223
tp224
Rp225
sg13
I0
sg14
S'card_neon'
p226
sg16
g218
sba(icard_class
Card
p227
(dp228
g3
S'Ampoule'
p229
sg5
g222
sg7
I01
sg8
g9
(S'\x07\xe3\x05\x07\x0f:,\x03;\xa9'
p230
tp231
Rp232
sg13
I0
sg14
S'card_ampoule'
p233
sg16
g218
sba(icard_class
Card
p234
(dp235
g3
S'Vieux jean'
p236
sg5
S'T'
p237
sg7
I00
sg8
g9
(S'\x07\xe3\x05\x16\x11-3\x068R'
p238
tp239
Rp240
sg13
I1
sg14
S'card_jean'
p241
sg16
S'Waste'
p242
sba(icard_class
Card
p243
(dp244
g3
S'Vieilles chaussures'
p245
sg5
g237
sg7
I01
sg8
g179
sg13
I1
sg14
S'card_chaussure'
p246
sg16
g242
sba(icard_class
Card
p247
(dp248
g3
S'Vieux bonnet'
p249
sg5
g237
sg7
I01
sg8
g79
sg13
I0
sg14
S'card_bonnet'
p250
sg16
g242
sba(icard_class
Card
p251
(dp252
g3
S'Chaussettes trou\xc3\xa9es'
p253
sg5
S'Ordures m\xc3\xa9nag\xc3\xa8res'
p254
sg7
I00
sg8
g9
(S'\x07\xe3\x05\x17\x15\x0b$\x0f\x1d\x84'
p255
tp256
Rp257
sg13
I0
sg14
S'crad_chaussette'
p258
sg16
g242
sba(icard_class
Card
p259
(dp260
g3
S'Vieux collants fil\xc3\xa9s'
p261
sg5
S'O'
p262
sg7
I00
sg8
g123
sg13
I1
sg14
S'card_collant'
p263
sg16
g242
sba(icard_class
Card
p264
(dp265
g3
S'Cotons d\xc3\xa9maquillants'
p266
sg5
g262
sg7
I01
sg8
g9
(S'\x07\xe3\x04\x17\x10\t\t\x08b\xcb'
p267
tp268
Rp269
sg13
I0
sg14
S'card_coton'
p270
sg16
g242
sba(icard_class
Card
p271
(dp272
g3
S'Bouteille de shampoing'
p273
sg5
S'R'
p274
sg7
I01
sg8
g12
sg13
I0
sg14
S'card_shampoing'
p275
sg16
g242
sba(icard_class
Card
p276
(dp277
g3
S'Carton de papier toilette ou de sopalin'
p278
sg5
S'C'
p279
sg7
I00
sg8
g9
(S'\x07\xe3\x05\x16\x11/%\x0bp\xfb'
p280
tp281
Rp282
sg13
I1
sg14
S'card_pq'
p283
sg16
g242
sba(icard_class
Card
p284
(dp285
g3
S'Mouchoires en papier'
p286
sg5
g279
sg7
I01
sg8
g67
sg13
I0
sg14
S'card_mouchoire'
p287
sg16
g242
sba(icard_class
Card
p288
(dp289
g3
S'Essuie-tout'
p290
sg5
g279
sg7
I01
sg8
g9
(S'\x07\xe3\x05\x16\x11\x1c0\x06\xaf\x0b'
p291
tp292
Rp293
sg13
I0
sg14
S'card_sopalin'
p294
sg16
g242
sba(icard_class
Card
p295
(dp296
g3
S'Brique de jus de fruit'
p297
sg5
g274
sg7
I00
sg8
g9
(S'\x07\xe3\x05\x16\x11)%\x05\xb3\xbb'
p298
tp299
Rp300
sg13
I1
sg14
S'card_brique'
p301
sg16
S'Waste'
p302
sba(icard_class
Card
p303
(dp304
g3
S'Gourde de compote'
p305
sg5
g274
sg7
I00
sg8
g9
(S'\x07\xe3\x05\x17\x15\x0b:\x07po'
p306
tp307
Rp308
sg13
I1
sg14
S'card_pompote'
p309
sg16
g302
sba(icard_class
Card
p310
(dp311
g3
S'Gourde de Caprisun'
p312
sg5
g274
sg7
I01
sg8
g9
(S'\x07\xe3\x05\x16\x113\x00\x06N\xcf'
p313
tp314
Rp315
sg13
I0
sg14
S'card_caprisun'
p316
sg16
g302
sba(icard_class
Card
p317
(dp318
g3
S'Vieux telephone'
p319
sg5
S'E'
p320
sg7
I01
sg8
g123
sg13
I0
sg14
S'card_telephone'
p321
sg16
g302
sba(icard_class
Card
p322
(dp323
g3
S'Pot de confiture vide'
p324
sg5
S'V'
p325
sg7
I00
sg8
g9
(S'\x07\xe3\x05\x16\x11\x00"\x0e\xbdU'
p326
tp327
Rp328
sg13
I1
sg14
S'card_confiture'
p329
sg16
g302
sba(icard_class
Card
p330
(dp331
g3
S'Pot de miel vide'
p332
sg5
g325
sg7
I01
sg8
g9
(S'\x07\xe3\x05\x14\x11,"\x01T\xfc'
p333
tp334
Rp335
sg13
I0
sg14
S'card_miel'
p336
sg16
g302
sba(icard_class
Card
p337
(dp338
g3
S'Flacon de ketchup/mayo/moutarde vide'
p339
sg5
g274
sg7
I00
sg8
g9
(S'\x07\xe3\x05\x16\x11)\x1e\r\xe3\xf2'
p340
tp341
Rp342
sg13
I1
sg14
S'card_ketchup'
p343
sg16
g302
sba(icard_class
Card
p344
(dp345
g3
S"Flacon de produit d'entretien vide"
p346
sg5
g274
sg7
I00
sg8
g9
(S'\x07\xe3\x05\x16\n",\x01\x8fm'
p347
tp348
Rp349
sg13
I1
sg14
S'card_entretien'
p350
sg16
g302
sba(icard_class
Card
p351
(dp352
g3
S'Draps us\xc3\xa9s'
p353
sg5
g237
sg7
I00
sg8
g9
(S'\x07\xe3\x05\x17\x15\x0b\x1f\x06\x14$'
p354
tp355
Rp356
sg13
I1
sg14
S'card_drap'
p357
sg16
g302
sba(icard_class
Card
p358
(dp359
g3
S'Tube de dentifrice'
p360
sg5
g274
sg7
I01
sg8
g9
(S'\x07\xe3\x05\x14\x11-9\x08.\x08'
p361
tp362
Rp363
sg13
I0
sg14
S'card_dentifrice'
p364
sg16
g302
sba(icard_class
Card
p365
(dp366
g3
S'Brosse \xc3\xa0 dents us\xc3\xa9e'
p367
sg5
g274
sg7
I01
sg8
g9
(S'\x07\xe3\x05\x14\x11.\x10\x06z\x9d'
p368
tp369
Rp370
sg13
I0
sg14
S'card_brosse_dents'
p371
sg16
g302
sba(icard_class
Card
p372
(dp373
g3
S'Bouquet fan\xc3\xa9'
p374
sg5
g279
sg7
I01
sg8
g9
(S'\x07\xe3\x05\x14\x11.&\x0b\xd8H'
p375
tp376
Rp377
sg13
I0
sg14
S'card_bouquet'
p378
sg16
g302
sba(icard_class
Card
p379
(dp380
g3
S'Nappe trou\xc3\xa9e'
p381
sg5
g237
sg7
I00
sg8
g9
(S'\x07\xe3\x05\x16\x11\x1c4\noQ'
p382
tp383
Rp384
sg13
I1
sg14
S'card_nappe'
p385
sg16
g302
sba(icard_class
Card
p386
(dp387
g3
S'Vieux T_Shirt '
p388
sg5
g237
sg7
I01
sg8
g9
(S'\x07\xe3\x05\x16\n#\x00\x06\xfb}'
p389
tp390
Rp391
sg13
I0
sg14
S'card_tshirt'
p392
sg16
g302
sba(icard_class
Card
p393
(dp394
g3
S'Vieux pull'
p395
sg5
g237
sg7
I00
sg8
g9
(S'\x07\xe3\x05\x16\x11&4\x0bP\xaf'
p396
tp397
Rp398
sg13
I1
sg14
S'card_pull'
p399
sg16
g302
sba(icard_class
Card
p400
(dp401
g3
S'Vieilles sandales'
p402
sg5
g237
sg7
I01
sg8
g9
(S'\x07\xe3\x05\x14\x11/(\x08\xcbh'
p403
tp404
Rp405
sg13
I0
sg14
S'card_sandales'
p406
sg16
g302
sba(icard_class
Card
p407
(dp408
g3
S'Vieilles tongs'
p409
sg5
g237
sg7
I01
sg8
g9
(S'\x07\xe3\x05\x14\x11/4\x0f=\xf4'
p410
tp411
Rp412
sg13
I0
sg14
S'card_tongs'
p413
sg16
g302
sba(icard_class
Card
p414
(dp415
g3
S'Croutes de fromage'
p416
sg5
g262
sg7
I00
sg8
g123
sg13
I1
sg14
S'card_fromage'
p417
sg16
g302
sba(icard_class
Card
p418
(dp419
g3
S'Mauvais morceaux de viande'
p420
sg5
g262
sg7
I00
sg8
g9
(S'\x07\xe3\x05\x16\x11\x00 \x03&\xb5'
p421
tp422
Rp423
sg13
I1
sg14
S'card_viande'
p424
sg16
g302
sba(icard_class
Card
p425
(dp426
g3
S"Coquilles d'oeufs"
p427
sg5
g279
sg7
I00
sg8
g9
(S'\x07\xe3\x05\x16\x1125\x02\xc7\x18'
p428
tp429
Rp430
sg13
I1
sg14
S'card_oeuf'
p431
sg16
g302
sba(icard_class
Card
p432
(dp433
g3
S'Peau de melon ou de pasteque'
p434
sg5
g279
sg7
I01
sg8
g9
(S'\x07\xe3\x05\x14\x111(\x0e\n\x9b'
p435
tp436
Rp437
sg13
I0
sg14
S'card_peau_melon'
p438
sg16
g302
sba(icard_class
Card
p439
(dp440
g3
S'Peau de kiwi'
p441
sg5
g279
sg7
I01
sg8
g9
(S'\x07\xe3\x05\x14\x1117\x02\x93\xe6'
p442
tp443
Rp444
sg13
I0
sg14
S'card_peau_kiwi'
p445
sg16
g302
sba(icard_class
Card
p446
(dp447
g3
S'Couenne de jambon'
p448
sg5
g262
sg7
I01
sg8
g9
(S'\x07\xe3\x05\x14\x112\t\n\xe1"'
p449
tp450
Rp451
sg13
I0
sg14
S'card_couenne'
p452
sg16
g302
sba(icard_class
Card
p453
(dp454
g3
S"Queues d'haricots"
p455
sg5
g279
sg7
I01
sg8
g9
(S'\x07\xe3\x05\x14\x112\x1f\nE|'
p456
tp457
Rp458
sg13
I0
sg14
S'card_queue_legume'
p459
sg16
g302
sba(icard_class
Card
p460
(dp461
g3
S'Eponge us\xc3\xa9e'
p462
sg5
g262
sg7
I01
sg8
g9
(S'\x07\xe3\x05\x14\x112,\x03\x07]'
p463
tp464
Rp465
sg13
I0
sg14
S'card_eponge'
p466
sg16
g302
sba(icard_class
Card
p467
(dp468
g3
S'Serpillere us\xc3\xa9e'
p469
sg5
g262
sg7
I01
sg8
g9
(S'\x07\xe3\x05\x16\x112/\x08F\x9c'
p470
tp471
Rp472
sg13
I0
sg14
S'card_serpillere'
p473
sg16
g302
sba(icard_class
Card
p474
(dp475
g3
S'Stylo bic'
p476
sg5
g274
sg7
I01
sg8
g9
(S"\x07\xe3\x05\x14\x113\x1b\x04'\xa8"
p477
tp478
Rp479
sg13
I0
sg14
S'card_stylo'
p480
sg16
g302
sba(icard_class
Card
p481
(dp482
g3
S'Crayon de papier'
p483
sg5
g279
sg7
I01
sg8
g9
(S'\x07\xe3\x05\x14\x113&\x05\xde\xed'
p484
tp485
Rp486
sg13
I0
sg14
S'card_crayon'
p487
sg16
g302
sba(icard_class
Card
p488
(dp489
g3
S'Epluchures de gomme'
p490
sg5
g262
sg7
I01
sg8
g9
(S'\x07\xe3\x05\x14\x114\t\x0b\x01D'
p491
tp492
Rp493
sg13
I0
sg14
S'card_gomme'
p494
sg16
g302
sba(icard_class
Card
p495
(dp496
g3
S'Regle gradu\xc3\xa9e'
p497
sg5
g274
sg7
I01
sg8
g9
(S'\x07\xe3\x05\x16\x0f\x14\x1f\x0c\x06\x1a'
p498
tp499
Rp500
sg13
I0
sg14
S'card_regle'
p501
sg16
g302
sba(icard_class
Card
p502
(dp503
g3
S'Serviette hygienique'
p504
sg5
g262
sg7
I01
sg8
g9
(S'\x07\xe3\x05\x14\x114)\x0c\x97\xd2'
p505
tp506
Rp507
sg13
I0
sg14
S'card_serviette_hygienique'
p508
sg16
g302
sba(icard_class
Card
p509
(dp510
g3
S'Tampon usag\xc3\xa9'
p511
sg5
g262
sg7
I01
sg8
g9
(S"\x07\xe3\x05\x16\x11\x00'\n\xb5\x98"
p512
tp513
Rp514
sg13
I0
sg14
S'card_tampon'
p515
sg16
g302
sba(icard_class
Card
p516
(dp517
g3
S'Fruit pourri'
p518
sg5
g279
sg7
I00
sg8
g9
(S'\x07\xe3\x05\x16\x11\x00-\x08\xe2\xf6'
p519
tp520
Rp521
sg13
I1
sg14
S'card_fruit'
p522
sg16
g302
sba(icard_class
Card
p523
(dp524
g3
S'Legume rassi'
p525
sg5
g279
sg7
I01
sg8
g9
(S'\x07\xe3\x05\x14\x115\x12\t\x0c\x81'
p526
tp527
Rp528
sg13
I0
sg14
S'card_legume'
p529
sg16
g302
sba(icard_class
Card
p530
(dp531
g3
S'The et sachet de the'
p532
sg5
g279
sg7
I00
sg8
g123
sg13
I1
sg14
S'card_the'
p533
sg16
g302
sba(icard_class
Card
p534
(dp535
g3
S'Marc de cafe'
p536
sg5
g279
sg7
I00
sg8
g9
(S'\x07\xe3\x05\x17\x15\x0b5\x00\x80\xbf'
p537
tp538
Rp539
sg13
I1
sg14
S'card_cafe'
p540
sg16
g302
sba(icard_class
Card
p541
(dp542
g3
S'Paille de boisson'
p543
sg5
g274
sg7
I01
sg8
g9
(S'\x07\xe3\x05\x14\x116\x06\t\xe9<'
p544
tp545
Rp546
sg13
I0
sg14
S'card_paille'
p547
sg16
g302
sba(icard_class
Card
p548
(dp549
g3
S'Gobelet de la cafeteria'
p550
sg5
g274
sg7
I01
sg8
g9
(S'\x07\xe3\x05\x14\x116\x14\r\x92\xce'
p551
tp552
Rp553
sg13
I0
sg14
S'card_gobelet'
p554
sg16
g302
sba(icard_class
Card
p555
(dp556
g3
S'Pot de yaourt en plastique'
p557
sg5
g274
sg7
I01
sg8
g9
(S"\x07\xe3\x05\x14\x116'\x08\n\xe9"
p558
tp559
Rp560
sg13
I0
sg14
S'card_yaourt'
p561
sg16
g302
sba(icard_class
Card
p562
(dp563
g3
S"Boite d'oeufs"
p564
sg5
g279
sg7
I01
sg8
g9
(S'\x07\xe3\x05\x16\x11.\x00\t\xdc\x98'
p565
tp566
Rp567
sg13
I0
sg14
S'card_boite_oeuf'
p568
sg16
g302
sba(icard_class
Card
p569
(dp570
g3
S'Restant de cigare'
p571
sg5
S'M'
p572
sg7
I01
sg8
g9
(S'\x07\xe3\x05\x14\x117\x08\x02wR'
p573
tp574
Rp575
sg13
I0
sg14
S'card_cigare'
p576
sg16
g302
sba(icard_class
Card
p577
(dp578
g3
S'Alumette usag\xc3\xa9e'
p579
sg5
g279
sg7
I01
sg8
g9
(S'\x07\xe3\x05\x14\x117\x18\x0bx\xb6'
p580
tp581
Rp582
sg13
I0
sg14
S'card_alumette'
p583
sg16
g302
sba(icard_class
Card
p584
(dp585
g3
S'Couverts en plastique'
p586
sg5
g274
sg7
I01
sg8
g9
(S'\x07\xe3\x05\x14\x117*\rL\xbd'
p587
tp588
Rp589
sg13
I0
sg14
S'card_couverts'
p590
sg16
g302
sba(icard_class
Card
p591
(dp592
g3
S'Assiettes \xc3\xa0 usage unique'
p593
sg5
g274
sg7
I01
sg8
g9
(S'\x07\xe3\x05\x14\x118\x01\x04\xc5['
p594
tp595
Rp596
sg13
I0
sg14
S'card_assiette_carton'
p597
sg16
g302
sba(icard_class
Card
p598
(dp599
g3
S'Pot de creme en plastique'
p600
sg5
g274
sg7
I01
sg8
g9
(S'\x07\xe3\x05\x14\x118\x11\x03j\xf0'
p601
tp602
Rp603
sg13
I0
sg14
S'card_creme'
p604
sg16
g302
sba(icard_class
Card
p605
(dp606
g3
S'Cahier'
p607
sg5
g274
sg7
I01
sg8
g9
(S'\x07\xe3\x05\x14\x118\x1e\n\x9dR'
p608
tp609
Rp610
sg13
I0
sg14
S'card_cahier'
p611
sg16
g302
sba(icard_class
Card
p612
(dp613
g3
S'*Clou'
p614
sg5
S'R'
p615
sg7
I01
sg8
g9
(S'\x07\xe3\x05\x17\x12.)\rVc'
p616
tp617
Rp618
sg13
I0
sg14
S'card_clou'
p619
sg16
S'Waste'
p620
sba(icard_class
Card
p621
(dp622
g3
S'Paquet de bonbons vide'
p623
sg5
g615
sg7
I01
sg8
g9
(S'\x07\xe3\x05\x17\x12/\x05\x06\x7f\xfb'
p624
tp625
Rp626
sg13
I0
sg14
S'card_bonbon'
p627
sg16
g620
sba(icard_class
Card
p628
(dp629
g3
S"Opercule d'apericube"
p630
sg5
g615
sg7
I01
sg8
g9
(S'\x07\xe3\x05\x17\x12/\x1a\x08\x14\xd8'
p631
tp632
Rp633
sg13
I0
sg14
S'card_apericube'
p634
sg16
g620
sba(icard_class
Card
p635
(dp636
g3
S'Cure-dent'
p637
sg5
S'C'
p638
sg7
I01
sg8
g9
(S'\x07\xe3\x05\x17\x12/(\x02\xb5\x12'
p639
tp640
Rp641
sg13
I0
sg14
S'card_pique'
p642
sg16
g620
sba(icard_class
Card
p643
(dp644
g3
S'Paquet de chips'
p645
sg5
g615
sg7
I01
sg8
g9
(S'\x07\xe3\x05\x17\x12/7\x04\xa8\x94'
p646
tp647
Rp648
sg13
I0
sg14
S'card_chips'
p649
sg16
g620
sba(icard_class
Card
p650
(dp651
g3
S'Vieux maquillage'
p652
sg5
S'O'
p653
sg7
I01
sg8
g9
(S'\x07\xe3\x05\x17\x120\x10\x07\x1b\x19'
p654
tp655
Rp656
sg13
I0
sg14
S'card_makeup'
p657
sg16
g620
sba(icard_class
Card
p658
(dp659
g3
S'Bouteille de Yoplait'
p660
sg5
g615
sg7
I01
sg8
g9
(S'\x07\xe3\x05\x17\x120%\x07Z\xe3'
p661
tp662
Rp663
sg13
I0
sg14
S'card_yoplait'
p664
sg16
g620
sba(icard_class
Card
p665
(dp666
g3
S'Imprimante'
p667
sg5
S'E'
p668
sg7
I01
sg8
g9
(S'\x07\xe3\x05\x17\x1205\t\xabR'
p669
tp670
Rp671
sg13
I0
sg14
S'card_printer'
p672
sg16
g620
sba(icard_class
Card
p673
(dp674
g3
S"Ampoule d'halogene grillee"
p675
sg5
S'A'
p676
sg7
I01
sg8
g9
(S'\x07\xe3\x05\x17\x122!\x01\xbdN'
p677
tp678
Rp679
sg13
I0
sg14
S'card_halogene'
p680
sg16
g620
sba(icard_class
Card
p681
(dp682
g3
S'Pot de compote individuelle'
p683
sg5
g615
sg7
I01
sg8
g9
(S'\x07\xe3\x05\x17\x123)\x04\xab?'
p684
tp685
Rp686
sg13
I0
sg14
S'card_compote'
p687
sg16
g620
sba(icard_class
Card
p688
(dp689
g3
S'Pot de mousse au chocolat individuelle'
p690
sg5
g615
sg7
I01
sg8
g9
(S'\x07\xe3\x05\x17\x124"\x00Fg'
p691
tp692
Rp693
sg13
I0
sg14
S'card_mousschoco'
p694
sg16
g620
sba.