(lp0
(icard_class
Card
p1
(dp2
S'topside'
p3
S"Bouteille d'eau"
p4
sS'backside'
p5
S'Recyclage'
p6
sS'review'
p7
I00
sS'date'
p8
cdatetime
datetime
p9
(S'\x07\xe3\x05\x07\x0f2\x1e\x0e\x94\xc4'
p10
tp11
Rp12
sS'position'
p13
I3
sS'identifier'
p14
S'card_bouteille_eau'
p15
sS'subject'
p16
S'Waste'
p17
sba(icard_class
Card
p18
(dp19
g3
S'Epluchures de pomme de terre'
p20
sg5
S'Compost'
p21
sg7
I01
sg8
g9
(S'\x07\xe3\x04\x17\x0f\r\x14\x0b5h'
p22
tp23
Rp24
sg13
I0
sg14
S'card_patate'
p25
sS'edited_attribute'
p26
S'Epluchures de pomme de terre'
p27
sg16
g17
sba(icard_class
Card
p28
(dp29
g3
S'Bouteille de Vin'
p30
sg5
S'Verre'
p31
sg7
I01
sg8
g24
sg13
I2
sg14
S'card_bouteille_vin'
p32
sg16
g17
sba(icard_class
Card
p33
(dp34
g3
S'Bouchon de bouteille'
p35
sg5
S'Bouchon'
p36
sg7
I00
sg8
g9
(S'\x07\xe3\x05\x07\x0f:,\x03;\xa9'
p37
tp38
Rp39
sg13
I2
sg14
S'card_bouchon'
p40
sg16
g17
sba(icard_class
Card
p41
(dp42
g3
S'Epluchures de carottes'
p43
sg5
S'Compost'
p44
sg7
I01
sg8
g24
sg13
I1
sg14
S'card_epluchure'
p45
sg16
S'Waste'
p46
sba(icard_class
Card
p47
(dp48
g3
S"Rognures d'ongles"
p49
sg5
S'Ordures m\xc3\xa9nag\xc3\xa8res'
p50
sg7
I01
sg8
g24
sg13
I2
sg14
S'card_rognures'
p51
sg16
g46
sba(icard_class
Card
p52
(dp53
g3
S'Os de poulet'
p54
sg5
S'Ordures m\xc3\xa9nag\xc3\xa8res'
p55
sg7
I01
sg8
g24
sg13
I0
sg14
S'card_viande'
p56
sg16
g46
sba(icard_class
Card
p57
(dp58
g3
S'M\xc3\xa9got de cigarette'
p59
sg5
S'Cendrier'
p60
sg7
I00
sg8
g9
(S'\x07\xe3\x05\x07\x0f5#\t`\xa4'
p61
tp62
Rp63
sg13
I0
sg14
S'card_megot'
p64
sg16
g46
sba(icard_class
Card
p65
(dp66
g3
S'Paquet de p\xc3\xa2tes vide'
p67
sg5
S'Recyclage'
p68
sg7
I01
sg8
g24
sg13
I1
sg14
S'card_paquet'
p69
sg16
g46
sba(icard_class
Card
p70
(dp71
g3
S'Piles us\xc3\xa9es'
p72
sg5
S'Piles'
p73
sg7
I00
sg8
g9
(S'\x07\xe3\x05\x07\x0f;2\x05.J'
p74
tp75
Rp76
sg13
I2
sg14
S'card_piles'
p77
sg16
S'Waste'
p78
sba(icard_class
Card
p79
(dp80
g3
S'CDrom ray\xc3\xa9'
p81
sg5
S'Electronique'
p82
sg7
I01
sg8
g24
sg13
I1
sg14
S'card_CD'
p83
sg16
g78
sba(icard_class
Card
p84
(dp85
g3
S'Emballage de gateaux'
p86
sg5
S'Recyclage'
p87
sg7
I01
sg8
g24
sg13
I1
sg14
S'card_paquet_gateau'
p88
sg16
g78
sba(icard_class
Card
p89
(dp90
g3
S'Brouillon utilis\xc3\xa9 recto-verso'
p91
sg5
S'Recyclage'
p92
sg7
I01
sg8
g24
sg13
I0
sg14
S'card_brouillon'
p93
sg16
g78
sba(icard_class
Card
p94
(dp95
g3
S'Carton de colis'
p96
sg5
S'Compost'
p97
sg7
I01
sg8
g24
sg13
I0
sg14
S'card_carton'
p98
sg16
g78
sba(icard_class
Card
p99
(dp100
g3
S'Sali\xc3\xa8re vide'
p101
sg5
S'Recyclage'
p102
sg7
I01
sg8
g24
sg13
I1
sg14
S'card_sel'
p103
sg16
g78
sba(icard_class
Card
p104
(dp105
g3
S"Ecorces d'orange"
p106
sg5
S'Ordures m\xc3\xa9nag\xc3\xa8res'
p107
sg7
I01
sg8
g24
sg13
I0
sg14
S'card_orange'
p108
sg16
g78
sba(icard_class
Card
p109
(dp110
g3
S'Ecorces de citron'
p111
sg5
S'Ordures m\xc3\xa9nag\xc3\xa8res'
p112
sg7
I01
sg8
g24
sg13
I0
sg14
S'card_citron'
p113
sg16
g78
sba(icard_class
Card
p114
(dp115
g3
S'Peau de pamplemousse'
p116
sg5
S'Ordures m\xc3\xa9nag\xc3\xa8res'
p117
sg7
I00
sg8
g39
sg13
I0
sg14
S'card_pamplemousse'
p118
sg16
g78
sba(icard_class
Card
p119
(dp120
g3
S'Trognon de pomme'
p121
sg5
S'Compost'
p122
sg7
I01
sg8
g24
sg13
I1
sg14
S'card_pomme'
p123
sg16
g78
sba(icard_class
Card
p124
(dp125
g3
S'Brique de lait'
p126
sg5
S'Recyclage'
p127
sg7
I00
sg8
g63
sg13
I2
sg14
S'card_lait'
p128
sg16
g78
sba(icard_class
Card
p129
(dp130
g3
S"Aluminium d'une tablette de chocolat"
p131
sg5
S'Recyclage'
p132
sg7
I01
sg8
g24
sg13
I1
sg14
S'card_chocolat'
p133
sg16
g78
sba(icard_class
Card
p134
(dp135
g3
S'Assiette cass\xc3\xa9e'
p136
sg5
S'Ordures m\xc3\xa9nag\xc3\xa8res'
p137
sg7
I01
sg8
g9
(S'\x07\xe3\x04\x17\x0f(5\x01r\xbd'
p138
tp139
Rp140
sg13
I0
sg14
S'card_assiette'
p141
sg16
S'Waste'
p142
sba(icard_class
Card
p143
(dp144
g3
S'Conserve de flageolets'
p145
sg5
S'Recyclage'
p146
sg7
I01
sg8
g9
(S'\x07\xe3\x04\x17\x0f)\x1b\x07\xeat'
p147
tp148
Rp149
sg13
I0
sg14
S'card_flageolet'
p150
sg16
g142
sba(icard_class
Card
p151
(dp152
g3
S'Conserve de concentr\xc3\xa9 de tomate'
p153
sg5
S'Recyclage'
p154
sg7
I01
sg8
g9
(S'\x07\xe3\x04\x17\x0f);\x08!0'
p155
tp156
Rp157
sg13
I0
sg14
S'card_tomato_concentre'
p158
sg16
g142
sba(icard_class
Card
p159
(dp160
g3
S'Pot de sauce tomate'
p161
sg5
S'Verre'
p162
sg7
I01
sg8
g9
(S'\x07\xe3\x04\x17\x0f*\x15\x011z'
p163
tp164
Rp165
sg13
I0
sg14
S'card_sauce_tomate'
p166
sg16
g142
sba(icard_class
Card
p167
(dp168
g3
S'Pot de pesto'
p169
sg5
S'Verre'
p170
sg7
I01
sg8
g9
(S'\x07\xe3\x04\x17\x0f*)\r\xbe9'
p171
tp172
Rp173
sg13
I0
sg14
S'card_pesto'
p174
sg16
g142
sba(icard_class
Card
p175
(dp176
g3
S'Feuilles mortes'
p177
sg5
S'Compost'
p178
sg7
I01
sg8
g9
(S'\x07\xe3\x04\x17\x0f+\x02\x03b '
p179
tp180
Rp181
sg13
I0
sg14
S'card_feuilles'
p182
sg16
g142
sba(icard_class
Card
p183
(dp184
g3
S'Bouteille de vinaigre'
p185
sg5
S'Verre'
p186
sg7
I01
sg8
g9
(S'\x07\xe3\x04\x17\x0f+\x18\x07.\x15'
p187
tp188
Rp189
sg13
I0
sg14
S'card_vinaigre'
p190
sg16
g142
sba(icard_class
Card
p191
(dp192
g3
S'Bouteille de Corona'
p193
sg5
S'Verre'
p194
sg7
I01
sg8
g9
(S'\x07\xe3\x04\x17\x0f,\t\x04\xbd\xfd'
p195
tp196
Rp197
sg13
I0
sg14
S'card_biere'
p198
sg16
g142
sba(icard_class
Card
p199
(dp200
g3
S'Sachet de baguette'
p201
sg5
S'Compost'
p202
sg7
I01
sg8
g9
(S'\x07\xe3\x04\x17\x0f,\x1f\x00\x19z'
p203
tp204
Rp205
sg13
I0
sg14
S'card_sachet_pain'
p206
sg16
g142
sba(icard_class
Card
p207
(dp208
g3
S"Vieux four de l'anim"
p209
sg5
S'Electronique'
p210
sg7
I01
sg8
g9
(S'\x07\xe3\x04\x17\x0f50\x0cK\r'
p211
tp212
Rp213
sg13
I0
sg14
S'card_four'
p214
sg16
S'Waste'
p215
sba(icard_class
Card
p216
(dp217
g3
S'Neon'
p218
sg5
S'Ampoules'
p219
sg7
I01
sg8
g9
(S'\x07\xe3\x04\x17\x0f6\x04\x07\xe5u'
p220
tp221
Rp222
sg13
I0
sg14
S'card_neon'
p223
sg16
g215
sba(icard_class
Card
p224
(dp225
g3
S'Ampoule'
p226
sg5
S'Ampoules'
p227
sg7
I00
sg8
g39
sg13
I0
sg14
S'card_ampoule'
p228
sg16
g215
sba(icard_class
Card
p229
(dp230
g3
S'Vieux jean'
p231
sg5
S'Relais'
p232
sg7
I01
sg8
g9
(S'\x07\xe3\x04\x17\x10\x06\n\x05\x16\n'
p233
tp234
Rp235
sg13
I0
sg14
S'card_jean'
p236
sg16
S'Waste'
p237
sba(icard_class
Card
p238
(dp239
g3
S'Vieilles chaussures'
p240
sg5
S'Relais'
p241
sg7
I01
sg8
g9
(S'\x07\xe3\x04\x17\x10\x06\x1b\x04\xf7\xdf'
p242
tp243
Rp244
sg13
I0
sg14
S'card_chaussure'
p245
sg16
g237
sba(icard_class
Card
p246
(dp247
g3
S'Vieux bonnet'
p248
sg5
S'Relais'
p249
sg7
I00
sg8
g76
sg13
I0
sg14
S'card_bonnet'
p250
sg16
g237
sba(icard_class
Card
p251
(dp252
g3
S'Chaussettes trou\xc3\xa9es'
p253
sg5
S'Ordures m\xc3\xa9nag\xc3\xa8res'
p254
sg7
I01
sg8
g9
(S'\x07\xe3\x04\x17\x10\x074\x08\x05\x13'
p255
tp256
Rp257
sg13
I0
sg14
S'crad_chaussette'
p258
sg16
g237
sba(icard_class
Card
p259
(dp260
g3
S'Vieux collants fil\xc3\xa9s'
p261
sg5
S'Ordures m\xc3\xa9nag\xc3\xa8res'
p262
sg7
I01
sg8
g9
(S'\x07\xe3\x04\x17\x10\x08\r\x03\x80\xa2'
p263
tp264
Rp265
sg13
I0
sg14
S'card_collant'
p266
sg16
g237
sba(icard_class
Card
p267
(dp268
g3
S'Cotons d\xc3\xa9maquillants'
p269
sg5
S'Ordures m\xc3\xa9nag\xc3\xa8res'
p270
sg7
I01
sg8
g9
(S'\x07\xe3\x04\x17\x10\t\t\x08b\xcb'
p271
tp272
Rp273
sg13
I0
sg14
S'card_coton'
p274
sg16
g237
sba(icard_class
Card
p275
(dp276
g3
S'Bouteille de shampoing'
p277
sg5
S'Recyclage'
p278
sg7
I00
sg8
g12
sg13
I0
sg14
S'card_shampoing'
p279
sg16
g237
sba(icard_class
Card
p280
(dp281
g3
S'Carton de papier toilette ou de sopalin'
p282
sg5
S'Compost'
p283
sg7
I01
sg8
g9
(S'\x07\xe3\x04\x17\x10\n\x1c\x07h\xc8'
p284
tp285
Rp286
sg13
I0
sg14
S'card_pq'
p287
sg16
g237
sba(icard_class
Card
p288
(dp289
g3
S'Mouchoires en papier'
p290
sg5
S'Compost'
p291
sg7
I00
sg8
g63
sg13
I0
sg14
S'card_mouchoire'
p292
sg16
g237
sba(icard_class
Card
p293
(dp294
g3
S'Essuie-tout'
p295
sg5
S'Compost'
p296
sg7
I01
sg8
g9
(S'\x07\xe3\x04\x17\x10\x0b\t\t\xf96'
p297
tp298
Rp299
sg13
I0
sg14
S'card_sopalin'
p300
sg16
g237
sba.