(lp0
(icardclass
Card
p1
(dp2
S'topside'
p3
S"Bouteille d'eau"
p4
sS'backside'
p5
S'Recyclage'
p6
sS'review'
p7
I00
sS'date'
p8
cdatetime
datetime
p9
(S'\x07\xe3\x04\x17\x0f\r\x14\x0b5h'
p10
tp11
Rp12
sS'position'
p13
I2
sS'identifier'
p14
S'card_bouteille_eau'
p15
sS'subject'
p16
S'Waste'
p17
sba(icardclass
Card
p18
(dp19
g3
S'Pomme de terre'
p20
sg5
S'Compost'
p21
sg7
I00
sg8
g12
sg13
I0
sg14
S'card_patate'
p22
sS'edited_attribute'
p23
I0
sg16
g17
sba(icardclass
Card
p24
(dp25
g3
S'Bouteille de Vin'
p26
sg5
S'Verre'
p27
sg7
I00
sg8
g12
sg13
I2
sg14
S'card_bouteille_vin'
p28
sg16
g17
sba(icardclass
Card
p29
(dp30
g3
S'Bouchon de bouteille'
p31
sg5
S'Bouchon'
p32
sg7
I00
sg8
g12
sg13
I1
sg14
S'card_bouchon'
p33
sg16
g17
sba(icardclass
Card
p34
(dp35
g3
S'Epluchures de carottes'
p36
sg5
S'Compost'
p37
sg7
I00
sg8
g12
sg13
I1
sg14
S'card_epluchure'
p38
sg16
S'Waste'
p39
sba(icardclass
Card
p40
(dp41
g3
S"Rognures d'ongles"
p42
sg5
S'Ordures m\xc3\xa9nag\xc3\xa8res'
p43
sg7
I00
sg8
g12
sg13
I2
sg14
S'card_rognures'
p44
sg16
g39
sba(icardclass
Card
p45
(dp46
g3
S'Os de poulet'
p47
sg5
S'Ordures m\xc3\xa9nag\xc3\xa8res'
p48
sg7
I00
sg8
g12
sg13
I0
sg14
S'card_viande'
p49
sg16
g39
sba(icardclass
Card
p50
(dp51
g3
S'M\xc3\xa9got de cigarette'
p52
sg5
S'Cendrier'
p53
sg7
I00
sg8
g12
sg13
I1
sg14
S'card_megot'
p54
sg16
g39
sba(icardclass
Card
p55
(dp56
g3
S'Paquet de p\xc3\xa2tes vide'
p57
sg5
S'Recyclage'
p58
sg7
I00
sg8
g12
sg13
I1
sg14
S'card_paquet'
p59
sg16
g39
sba(icardclass
Card
p60
(dp61
g3
S'Piles us\xc3\xa9es'
p62
sg5
S'Piles'
p63
sg7
I00
sg8
g12
sg13
I1
sg14
S'card_piles'
p64
sg16
S'Waste'
p65
sba(icardclass
Card
p66
(dp67
g3
S'CDrom ray\xc3\xa9'
p68
sg5
S'Electronique'
p69
sg7
I00
sg8
g12
sg13
I1
sg14
S'card_CD'
p70
sg16
g65
sba(icardclass
Card
p71
(dp72
g3
S'Emballage de gateaux'
p73
sg5
S'Recyclage'
p74
sg7
I00
sg8
g12
sg13
I1
sg14
S'card_paquet_gateau'
p75
sg16
g65
sba(icardclass
Card
p76
(dp77
g3
S'Brouillon utilis\xc3\xa9 recto-verso'
p78
sg5
S'Recyclage'
p79
sg7
I00
sg8
g12
sg13
I0
sg14
S'card_brouillon'
p80
sg16
g65
sba(icardclass
Card
p81
(dp82
g3
S'Carton de colis'
p83
sg5
S'Compost'
p84
sg7
I00
sg8
g12
sg13
I0
sg14
S'card_carton'
p85
sg16
g65
sba(icardclass
Card
p86
(dp87
g3
S'Sali\xc3\xa8re vide'
p88
sg5
S'Recyclage'
p89
sg7
I00
sg8
g12
sg13
I1
sg14
S'card_sel'
p90
sg16
g65
sba(icardclass
Card
p91
(dp92
g3
S"Ecorces d'orange"
p93
sg5
S'Ordures m\xc3\xa9nag\xc3\xa8res'
p94
sg7
I00
sg8
g12
sg13
I0
sg14
S'card_orange'
p95
sg16
g65
sba(icardclass
Card
p96
(dp97
g3
S'Ecorces de citron'
p98
sg5
S'Ordures m\xc3\xa9nag\xc3\xa8res'
p99
sg7
I00
sg8
g12
sg13
I0
sg14
S'card_citron'
p100
sg16
g65
sba(icardclass
Card
p101
(dp102
g3
S'Peau de pamplemousse'
p103
sg5
S'Ordures m\xc3\xa9nag\xc3\xa8res'
p104
sg7
I00
sg8
g12
sg13
I0
sg14
S'card_pamplemousse'
p105
sg16
g65
sba(icardclass
Card
p106
(dp107
g3
S'Trognon de pomme'
p108
sg5
S'Compost'
p109
sg7
I00
sg8
g12
sg13
I1
sg14
S'card_pomme'
p110
sg16
g65
sba(icardclass
Card
p111
(dp112
g3
S'Brique de lait'
p113
sg5
S'Recyclage'
p114
sg7
I00
sg8
g12
sg13
I1
sg14
S'card_lait'
p115
sg16
g65
sba(icardclass
Card
p116
(dp117
g3
S"Aluminium d'une tablette de chocolat"
p118
sg5
S'Recyclage'
p119
sg7
I00
sg8
g12
sg13
I1
sg14
S'card_chocolat'
p120
sg16
g65
sba(icardclass
Card
p121
(dp122
g3
S'Assiette cass\xc3\xa9e'
p123
sg5
S'Ordures m\xc3\xa9nag\xc3\xa8res'
p124
sg7
I01
sg8
g9
(S'\x07\xe3\x04\x17\x0f(5\x01r\xbd'
p125
tp126
Rp127
sg13
I0
sg14
S'card_assiette'
p128
sg16
S'Waste'
p129
sba(icardclass
Card
p130
(dp131
g3
S'Conserve de flageolets'
p132
sg5
S'Recyclage'
p133
sg7
I01
sg8
g9
(S'\x07\xe3\x04\x17\x0f)\x1b\x07\xeat'
p134
tp135
Rp136
sg13
I0
sg14
S'card_flageolet'
p137
sg16
g129
sba(icardclass
Card
p138
(dp139
g3
S'Conserve de concentr\xc3\xa9 de tomate'
p140
sg5
S'Recyclage'
p141
sg7
I01
sg8
g9
(S'\x07\xe3\x04\x17\x0f);\x08!0'
p142
tp143
Rp144
sg13
I0
sg14
S'card_tomato_concentre'
p145
sg16
g129
sba(icardclass
Card
p146
(dp147
g3
S'Pot de sauce tomate'
p148
sg5
S'Verre'
p149
sg7
I01
sg8
g9
(S'\x07\xe3\x04\x17\x0f*\x15\x011z'
p150
tp151
Rp152
sg13
I0
sg14
S'card_sauce_tomate'
p153
sg16
g129
sba(icardclass
Card
p154
(dp155
g3
S'Pot de pesto'
p156
sg5
S'Verre'
p157
sg7
I01
sg8
g9
(S'\x07\xe3\x04\x17\x0f*)\r\xbe9'
p158
tp159
Rp160
sg13
I0
sg14
S'card_pesto'
p161
sg16
g129
sba(icardclass
Card
p162
(dp163
g3
S'Feuilles mortes'
p164
sg5
S'Compost'
p165
sg7
I01
sg8
g9
(S'\x07\xe3\x04\x17\x0f+\x02\x03b '
p166
tp167
Rp168
sg13
I0
sg14
S'card_feuilles'
p169
sg16
g129
sba(icardclass
Card
p170
(dp171
g3
S'Bouteille de vinaigre'
p172
sg5
S'Verre'
p173
sg7
I01
sg8
g9
(S'\x07\xe3\x04\x17\x0f+\x18\x07.\x15'
p174
tp175
Rp176
sg13
I0
sg14
S'card_vinaigre'
p177
sg16
g129
sba(icardclass
Card
p178
(dp179
g3
S'Bouteille de Corona'
p180
sg5
S'Verre'
p181
sg7
I01
sg8
g9
(S'\x07\xe3\x04\x17\x0f,\t\x04\xbd\xfd'
p182
tp183
Rp184
sg13
I0
sg14
S'card_biere'
p185
sg16
g129
sba(icardclass
Card
p186
(dp187
g3
S'Sachet de baguette'
p188
sg5
S'Compost'
p189
sg7
I01
sg8
g9
(S'\x07\xe3\x04\x17\x0f,\x1f\x00\x19z'
p190
tp191
Rp192
sg13
I0
sg14
S'card_sachet_pain'
p193
sg16
g129
sba(icardclass
Card
p194
(dp195
g3
S"Vieux four de l'anim"
p196
sg5
S'Electronique'
p197
sg7
I01
sg8
g9
(S'\x07\xe3\x04\x17\x0f50\x0cK\r'
p198
tp199
Rp200
sg13
I0
sg14
S'card_four'
p201
sg16
S'Waste'
p202
sba(icardclass
Card
p203
(dp204
g3
S'Neon'
p205
sg5
S'Ampoules'
p206
sg7
I01
sg8
g9
(S'\x07\xe3\x04\x17\x0f6\x04\x07\xe5u'
p207
tp208
Rp209
sg13
I0
sg14
S'card_neon'
p210
sg16
g202
sba(icardclass
Card
p211
(dp212
g3
S'Ampoule'
p213
sg5
S'Ampoules'
p214
sg7
I01
sg8
g9
(S'\x07\xe3\x04\x17\x0f6\x17\x03\x03\xd3'
p215
tp216
Rp217
sg13
I0
sg14
S'card_ampoule'
p218
sg16
g202
sba(icardclass
Card
p219
(dp220
g3
S'Vieux jean'
p221
sg5
S'Relais'
p222
sg7
I01
sg8
g9
(S'\x07\xe3\x04\x17\x10\x06\n\x05\x16\n'
p223
tp224
Rp225
sg13
I0
sg14
S'card_jean'
p226
sg16
S'Waste'
p227
sba(icardclass
Card
p228
(dp229
g3
S'Vieilles chaussures'
p230
sg5
S'Relais'
p231
sg7
I01
sg8
g9
(S'\x07\xe3\x04\x17\x10\x06\x1b\x04\xf7\xdf'
p232
tp233
Rp234
sg13
I0
sg14
S'card_chaussure'
p235
sg16
g227
sba(icardclass
Card
p236
(dp237
g3
S'Vieux bonnet'
p238
sg5
S'Relais'
p239
sg7
I01
sg8
g9
(S'\x07\xe3\x04\x17\x10\x060\x06n\xaa'
p240
tp241
Rp242
sg13
I0
sg14
S'card_bonnet'
p243
sg16
g227
sba(icardclass
Card
p244
(dp245
g3
S'Chaussettes trou\xc3\xa9es'
p246
sg5
S'Ordures m\xc3\xa9nag\xc3\xa8res'
p247
sg7
I01
sg8
g9
(S'\x07\xe3\x04\x17\x10\x074\x08\x05\x13'
p248
tp249
Rp250
sg13
I0
sg14
S'crad_chaussette'
p251
sg16
g227
sba(icardclass
Card
p252
(dp253
g3
S'Vieux collants fil\xc3\xa9s'
p254
sg5
S'Ordures m\xc3\xa9nag\xc3\xa8res'
p255
sg7
I01
sg8
g9
(S'\x07\xe3\x04\x17\x10\x08\r\x03\x80\xa2'
p256
tp257
Rp258
sg13
I0
sg14
S'card_collant'
p259
sg16
g227
sba(icardclass
Card
p260
(dp261
g3
S'Cotons d\xc3\xa9maquillants'
p262
sg5
S'Ordures m\xc3\xa9nag\xc3\xa8res'
p263
sg7
I01
sg8
g9
(S'\x07\xe3\x04\x17\x10\t\t\x08b\xcb'
p264
tp265
Rp266
sg13
I0
sg14
S'card_coton'
p267
sg16
g227
sba(icardclass
Card
p268
(dp269
g3
S'Bouteille de shampoing'
p270
sg5
S'Recyclage'
p271
sg7
I01
sg8
g9
(S'\x07\xe3\x04\x17\x10\t:\x0c\xa8\x92'
p272
tp273
Rp274
sg13
I0
sg14
S'card_shampoing'
p275
sg16
g227
sba(icardclass
Card
p276
(dp277
g3
S'Carton de papier toilette ou de sopalin'
p278
sg5
S'Compost'
p279
sg7
I01
sg8
g9
(S'\x07\xe3\x04\x17\x10\n\x1c\x07h\xc8'
p280
tp281
Rp282
sg13
I0
sg14
S'card_pq'
p283
sg16
g227
sba(icardclass
Card
p284
(dp285
g3
S'Mouchoires en papier'
p286
sg5
S'Compost'
p287
sg7
I01
sg8
g9
(S'\x07\xe3\x04\x17\x10\n1\n\xb1\xe6'
p288
tp289
Rp290
sg13
I0
sg14
S'card_mouchoire'
p291
sg16
g227
sba(icardclass
Card
p292
(dp293
g3
S'Essuie-tout'
p294
sg5
S'Compost'
p295
sg7
I01
sg8
g9
(S'\x07\xe3\x04\x17\x10\x0b\t\t\xf96'
p296
tp297
Rp298
sg13
I0
sg14
S'card_sopalin'
p299
sg16
g227
sba.