(lp0
(icard_class
Card
p1
(dp2
S'topside'
p3
S"Bouteille d'eau"
p4
sS'backside'
p5
S'R'
p6
sS'review'
p7
I00
sS'date'
p8
cdatetime
datetime
p9
(S'\x07\xe3\x05\x16\n\x17(\x0b{\x1d'
p10
tp11
Rp12
sS'position'
p13
I3
sS'identifier'
p14
S'card_bouteille_eau'
p15
sS'subject'
p16
S'Waste'
p17
sba(icard_class
Card
p18
(dp19
g3
S'Epluchure de pomme de terre'
p20
sg5
S'C'
p21
sg7
I00
sg8
g9
(S'\x07\xe3\x05\x16\n\x17&\x0b\xf2d'
p22
tp23
Rp24
sg13
I3
sg14
S'card_patate'
p25
sg16
S'Waste'
p26
sba(icard_class
Card
p27
(dp28
g3
S'Bouteille de vin'
p29
sg5
S'V'
p30
sg7
I00
sg8
g9
(S'\x07\xe3\x05\x16\n\x17 \x0c\xefT'
p31
tp32
Rp33
sg13
I0
sg14
S'card_bouteille_vin'
p34
sg16
g26
sba(icard_class
Card
p35
(dp36
g3
S'Bouchon de bouteille'
p37
sg5
S'B'
p38
sg7
I00
sg8
g9
(S'\x07\xe3\x05\x16\n\x17+\x015\xc2'
p39
tp40
Rp41
sg13
I0
sg14
S'card_bouchon'
p42
sg16
S'Waste'
p43
sba(icard_class
Card
p44
(dp45
g3
S'Epluchures de carottes'
p46
sg5
S'C'
p47
sg7
I00
sg8
g9
(S'\x07\xe3\x05\x16\n\x17$\x05\xd0\xca'
p48
tp49
Rp50
sg13
I1
sg14
S'card_epluchure'
p51
sg16
S'Waste'
p52
sba(icard_class
Card
p53
(dp54
g3
S'trop cool'
p55
sg5
S'Martine'
p56
sg7
I01
sg8
g9
(S'\x07\xe3\x05\x17\x16\x1e\x02\x06\x1es'
p57
tp58
Rp59
sg13
I0
sg14
S'card_tropcool'
p60
sg16
S'Waste'
p61
sba.