(lp0
(icard_class
Card
p1
(dp2
S'topside'
p3
S"Bouteille d'eau"
p4
sS'backside'
p5
S'R'
p6
sS'review'
p7
I00
sS'date'
p8
cdatetime
datetime
p9
(S'\x07\xe3\x05\x07\x0f\x12\x11\x03\x8eB'
p10
tp11
Rp12
sS'position'
p13
I0
sS'identifier'
p14
S'card_bouteille_eau'
p15
sS'subject'
p16
S'Waste'
p17
sba(icard_class
Card
p18
(dp19
g3
S'Epluchure de pomme de terre'
p20
sg5
S'C'
p21
sg7
I00
sg8
g12
sg13
I1
sg14
S'card_patate'
p22
sg16
S'Waste'
p23
sba(icard_class
Card
p24
(dp25
g3
S'Bouteille de vin'
p26
sg5
S'V'
p27
sg7
I00
sg8
g12
sg13
I1
sg14
S'card_bouteille_vin'
p28
sg16
g23
sba(icard_class
Card
p29
(dp30
g3
S'Bouchon de bouteille'
p31
sg5
S'B'
p32
sg7
I00
sg8
g9
(S'\x07\xe3\x05\x07\x0f\x187\x023\xba'
p33
tp34
Rp35
sg13
I0
sg14
S'card_bouchon'
p36
sg16
S'Waste'
p37
sba(icard_class
Card
p38
(dp39
g3
S'Epluchures de carottes'
p40
sg5
S'C'
p41
sg7
I01
sg8
g9
(S'\x07\xe3\x05\x07\x0f\x1a(\x0f\x1b\xf8'
p42
tp43
Rp44
sg13
I0
sg14
S'card_epluchure'
p45
sg16
S'Waste'
p46
sba.